
multiply:     file format elf32-littleriscv


Disassembly of section .text:

02000000 <_start>:
 2000000:	fe901197          	auipc	gp,0xfe901
 2000004:	80018193          	addi	gp,gp,-2048 # 900800 <__global_pointer$>

02000008 <.Lpcrel_hi1>:
 2000008:	fe900117          	auipc	sp,0xfe900
 200000c:	ff410113          	addi	sp,sp,-12 # 8ffffc <__stack_init$>

02000010 <.Lpcrel_hi2>:
 2000010:	fe900517          	auipc	a0,0xfe900
 2000014:	02050513          	addi	a0,a0,32 # 900030 <__result>
 2000018:	038000ef          	jal	ra,2000050 <__start>

0200001c <.Lpcrel_hi3>:
 200001c:	fe900517          	auipc	a0,0xfe900
 2000020:	01450513          	addi	a0,a0,20 # 900030 <__result>
 2000024:	00052083          	lw	ra,0(a0)
 2000028:	00452103          	lw	sp,4(a0)
 200002c:	00852183          	lw	gp,8(a0)
 2000030:	00c52203          	lw	tp,12(a0)
 2000034:	01052283          	lw	t0,16(a0)
 2000038:	01452303          	lw	t1,20(a0)
 200003c:	01852383          	lw	t2,24(a0)
 2000040:	01c52403          	lw	s0,28(a0)
 2000044:	02052483          	lw	s1,32(a0)
 2000048:	00000073          	ecall

0200004c <_fault>:
 200004c:	000020a3          	sw	zero,1(zero) # 1 <__bss_size-0x4f>

02000050 <__start>:
 2000050:	fd010113          	addi	sp,sp,-48
 2000054:	02112623          	sw	ra,44(sp)
 2000058:	02812423          	sw	s0,40(sp)
 200005c:	000005b7          	lui	a1,0x0
 2000060:	0505a603          	lw	a2,80(a1) # 50 <__bss_size>
 2000064:	00050413          	mv	s0,a0
 2000068:	00900537          	lui	a0,0x900
 200006c:	00450513          	addi	a0,a0,4 # 900004 <_ZN16risc0_zkvm_guest3sha8CUR_DESC17h6704435e4d2fed2cE.0.llvm.11067264371534210133>
 2000070:	00000593          	li	a1,0
 2000074:	00003097          	auipc	ra,0x3
 2000078:	aa4080e7          	jalr	-1372(ra) # 2002b18 <memset>
 200007c:	01810513          	addi	a0,sp,24
 2000080:	03f005b7          	lui	a1,0x3f00
 2000084:	00040637          	lui	a2,0x40
 2000088:	00001097          	auipc	ra,0x1
 200008c:	ccc080e7          	jalr	-820(ra) # 2000d54 <_ZN16risc0_zkvm_serde10serializer5Slice3new17h45d75a5678d9e327E>
 2000090:	00010513          	mv	a0,sp
 2000094:	02b005b7          	lui	a1,0x2b00
 2000098:	00500637          	lui	a2,0x500
 200009c:	00001097          	auipc	ra,0x1
 20000a0:	cb8080e7          	jalr	-840(ra) # 2000d54 <_ZN16risc0_zkvm_serde10serializer5Slice3new17h45d75a5678d9e327E>
 20000a4:	01812503          	lw	a0,24(sp)
 20000a8:	00a12623          	sw	a0,12(sp)
 20000ac:	00012583          	lw	a1,0(sp)
 20000b0:	01c12603          	lw	a2,28(sp)
 20000b4:	009006b7          	lui	a3,0x900
 20000b8:	00412703          	lw	a4,4(sp)
 20000bc:	00b6a423          	sw	a1,8(a3) # 900008 <_ZN16risc0_zkvm_guest3env3ENV17h1007d75372db3e76E>
 20000c0:	00812583          	lw	a1,8(sp)
 20000c4:	00868693          	addi	a3,a3,8
 20000c8:	00e6a223          	sw	a4,4(a3)
 20000cc:	02012703          	lw	a4,32(sp)
 20000d0:	00b6a423          	sw	a1,8(a3)
 20000d4:	00a6a623          	sw	a0,12(a3)
 20000d8:	00c6a823          	sw	a2,16(a3)
 20000dc:	00e6aa23          	sw	a4,20(a3)
 20000e0:	0006ac23          	sw	zero,24(a3)
 20000e4:	0006ae23          	sw	zero,28(a3)
 20000e8:	0206a023          	sw	zero,32(a3)
 20000ec:	00000097          	auipc	ra,0x0
 20000f0:	138080e7          	jalr	312(ra) # 2000224 <__main>
 20000f4:	00040513          	mv	a0,s0
 20000f8:	02c12083          	lw	ra,44(sp)
 20000fc:	02812403          	lw	s0,40(sp)
 2000100:	03010113          	addi	sp,sp,48
 2000104:	00000317          	auipc	t1,0x0
 2000108:	2d430067          	jr	724(t1) # 20003d8 <_ZN16risc0_zkvm_guest3env8finalize17h9c323c42e1ee847fE>

0200010c <_ZN16risc0_zkvm_guest3env6commit17hf7329d0a59cb7b9eE>:
 200010c:	fe010113          	addi	sp,sp,-32
 2000110:	00112e23          	sw	ra,28(sp)
 2000114:	00812c23          	sw	s0,24(sp)
 2000118:	00912a23          	sw	s1,20(sp)
 200011c:	01212823          	sw	s2,16(sp)
 2000120:	00452403          	lw	s0,4(a0)
 2000124:	00052583          	lw	a1,0(a0)
 2000128:	00900537          	lui	a0,0x900
 200012c:	01450493          	addi	s1,a0,20 # 900014 <_ZN16risc0_zkvm_guest3env3ENV17h1007d75372db3e76E+0xc>
 2000130:	00048513          	mv	a0,s1
 2000134:	00001097          	auipc	ra,0x1
 2000138:	b94080e7          	jalr	-1132(ra) # 2000cc8 <_ZN98_$LT$risc0_zkvm_serde..serializer..Slice$u20$as$u20$risc0_zkvm_serde..serializer..StreamWriter$GT$13try_push_word17h18cabe6c51b6f2e5E>
 200013c:	0ff57513          	andi	a0,a0,255
 2000140:	00700913          	li	s2,7
 2000144:	07251c63          	bne	a0,s2,20001bc <_ZN16risc0_zkvm_guest3env6commit17hf7329d0a59cb7b9eE+0xb0>
 2000148:	00048513          	mv	a0,s1
 200014c:	00040593          	mv	a1,s0
 2000150:	00001097          	auipc	ra,0x1
 2000154:	b78080e7          	jalr	-1160(ra) # 2000cc8 <_ZN98_$LT$risc0_zkvm_serde..serializer..Slice$u20$as$u20$risc0_zkvm_serde..serializer..StreamWriter$GT$13try_push_word17h18cabe6c51b6f2e5E>
 2000158:	0ff57513          	andi	a0,a0,255
 200015c:	07251063          	bne	a0,s2,20001bc <_ZN16risc0_zkvm_guest3env6commit17hf7329d0a59cb7b9eE+0xb0>
 2000160:	00900537          	lui	a0,0x900
 2000164:	00850413          	addi	s0,a0,8 # 900008 <_ZN16risc0_zkvm_guest3env3ENV17h1007d75372db3e76E>
 2000168:	00c40593          	addi	a1,s0,12
 200016c:	00010513          	mv	a0,sp
 2000170:	00001097          	auipc	ra,0x1
 2000174:	b8c080e7          	jalr	-1140(ra) # 2000cfc <_ZN98_$LT$risc0_zkvm_serde..serializer..Slice$u20$as$u20$risc0_zkvm_serde..serializer..StreamWriter$GT$7release17ha6c89193f9f5627eE>
 2000178:	00014503          	lbu	a0,0(sp)
 200017c:	06051863          	bnez	a0,20001ec <_ZN16risc0_zkvm_guest3env6commit17hf7329d0a59cb7b9eE+0xe0>
 2000180:	00812503          	lw	a0,8(sp)
 2000184:	01842583          	lw	a1,24(s0)
 2000188:	00412603          	lw	a2,4(sp)
 200018c:	00a58733          	add	a4,a1,a0
 2000190:	00251693          	slli	a3,a0,0x2
 2000194:	00100593          	li	a1,1
 2000198:	00e42c23          	sw	a4,24(s0)
 200019c:	00040513          	mv	a0,s0
 20001a0:	01c12083          	lw	ra,28(sp)
 20001a4:	01812403          	lw	s0,24(sp)
 20001a8:	01412483          	lw	s1,20(sp)
 20001ac:	01012903          	lw	s2,16(sp)
 20001b0:	02010113          	addi	sp,sp,32
 20001b4:	00000317          	auipc	t1,0x0
 20001b8:	3e030067          	jr	992(t1) # 2000594 <_ZN16risc0_zkvm_guest3env3Env9send_recv17hd6df1e7e95d40ceaE>
 20001bc:	00a10723          	sb	a0,14(sp)
 20001c0:	02003537          	lui	a0,0x2003
 20001c4:	cec50513          	addi	a0,a0,-788 # 2002cec <anon.ad9603a55ed4bb67655d95fa3ca6f0ee.4.llvm.5690797283130860114>
 20001c8:	020035b7          	lui	a1,0x2003
 20001cc:	d1858693          	addi	a3,a1,-744 # 2002d18 <anon.ad9603a55ed4bb67655d95fa3ca6f0ee.5.llvm.5690797283130860114>
 20001d0:	020035b7          	lui	a1,0x2003
 20001d4:	cbc58713          	addi	a4,a1,-836 # 2002cbc <anon.ad9603a55ed4bb67655d95fa3ca6f0ee.1.llvm.5690797283130860114>
 20001d8:	02b00593          	li	a1,43
 20001dc:	00e10613          	addi	a2,sp,14
 20001e0:	00002097          	auipc	ra,0x2
 20001e4:	4d8080e7          	jalr	1240(ra) # 20026b8 <_ZN4core6result13unwrap_failed17h9f2f5272bd1199e5E>
 20001e8:	c0001073          	unimp
 20001ec:	00110503          	lb	a0,1(sp)
 20001f0:	00a107a3          	sb	a0,15(sp)
 20001f4:	02003537          	lui	a0,0x2003
 20001f8:	cec50513          	addi	a0,a0,-788 # 2002cec <anon.ad9603a55ed4bb67655d95fa3ca6f0ee.4.llvm.5690797283130860114>
 20001fc:	020035b7          	lui	a1,0x2003
 2000200:	d1858693          	addi	a3,a1,-744 # 2002d18 <anon.ad9603a55ed4bb67655d95fa3ca6f0ee.5.llvm.5690797283130860114>
 2000204:	020035b7          	lui	a1,0x2003
 2000208:	ccc58713          	addi	a4,a1,-820 # 2002ccc <anon.ad9603a55ed4bb67655d95fa3ca6f0ee.2.llvm.5690797283130860114>
 200020c:	02b00593          	li	a1,43
 2000210:	00f10613          	addi	a2,sp,15
 2000214:	00002097          	auipc	ra,0x2
 2000218:	4a4080e7          	jalr	1188(ra) # 20026b8 <_ZN4core6result13unwrap_failed17h9f2f5272bd1199e5E>
 200021c:	c0001073          	unimp

02000220 <_ZN4core3ptr49drop_in_place$LT$risc0_zkvm_serde..err..Error$GT$17hf0a54e77740638acE.llvm.5690797283130860114>:
 2000220:	00008067          	ret

02000224 <__main>:
 2000224:	fd010113          	addi	sp,sp,-48
 2000228:	02112623          	sw	ra,44(sp)
 200022c:	02812423          	sw	s0,40(sp)
 2000230:	02912223          	sw	s1,36(sp)
 2000234:	03212023          	sw	s2,32(sp)
 2000238:	00900537          	lui	a0,0x900
 200023c:	00850413          	addi	s0,a0,8 # 900008 <_ZN16risc0_zkvm_guest3env3ENV17h1007d75372db3e76E>
 2000240:	00040513          	mv	a0,s0
 2000244:	00000097          	auipc	ra,0x0
 2000248:	3b8080e7          	jalr	952(ra) # 20005fc <_ZN16risc0_zkvm_guest3env3Env13initial_input17ha6080fad28469a2cE>
 200024c:	00050593          	mv	a1,a0
 2000250:	00810513          	addi	a0,sp,8
 2000254:	00001097          	auipc	ra,0x1
 2000258:	a2c080e7          	jalr	-1492(ra) # 2000c80 <_ZN16risc0_zkvm_serde12deserializer12Deserializer14try_take_dword17h7ee961cb62f386fbE>
 200025c:	00814503          	lbu	a0,8(sp)
 2000260:	0c051663          	bnez	a0,200032c <__main+0x108>
 2000264:	01412903          	lw	s2,20(sp)
 2000268:	01012483          	lw	s1,16(sp)
 200026c:	00040513          	mv	a0,s0
 2000270:	00000097          	auipc	ra,0x0
 2000274:	38c080e7          	jalr	908(ra) # 20005fc <_ZN16risc0_zkvm_guest3env3Env13initial_input17ha6080fad28469a2cE>
 2000278:	00050593          	mv	a1,a0
 200027c:	00810513          	addi	a0,sp,8
 2000280:	00001097          	auipc	ra,0x1
 2000284:	a00080e7          	jalr	-1536(ra) # 2000c80 <_ZN16risc0_zkvm_serde12deserializer12Deserializer14try_take_dword17h7ee961cb62f386fbE>
 2000288:	00814503          	lbu	a0,8(sp)
 200028c:	0a051063          	bnez	a0,200032c <__main+0x108>
 2000290:	01412583          	lw	a1,20(sp)
 2000294:	01012503          	lw	a0,16(sp)
 2000298:	0014c613          	xori	a2,s1,1
 200029c:	01266633          	or	a2,a2,s2
 20002a0:	00163613          	seqz	a2,a2
 20002a4:	00154693          	xori	a3,a0,1
 20002a8:	00b6e6b3          	or	a3,a3,a1
 20002ac:	0016b693          	seqz	a3,a3
 20002b0:	00d66633          	or	a2,a2,a3
 20002b4:	0a061663          	bnez	a2,2000360 <__main+0x13c>
 20002b8:	02958633          	mul	a2,a1,s1
 20002bc:	02a906b3          	mul	a3,s2,a0
 20002c0:	00c68633          	add	a2,a3,a2
 20002c4:	02a4b6b3          	mulhu	a3,s1,a0
 20002c8:	00c68633          	add	a2,a3,a2
 20002cc:	00d636b3          	sltu	a3,a2,a3
 20002d0:	00b03733          	snez	a4,a1
 20002d4:	012037b3          	snez	a5,s2
 20002d8:	00e7f733          	and	a4,a5,a4
 20002dc:	02a937b3          	mulhu	a5,s2,a0
 20002e0:	00f037b3          	snez	a5,a5
 20002e4:	00f76733          	or	a4,a4,a5
 20002e8:	0295b5b3          	mulhu	a1,a1,s1
 20002ec:	00b035b3          	snez	a1,a1
 20002f0:	00b765b3          	or	a1,a4,a1
 20002f4:	00d5e5b3          	or	a1,a1,a3
 20002f8:	0a059463          	bnez	a1,20003a0 <__main+0x17c>
 20002fc:	02a48533          	mul	a0,s1,a0
 2000300:	00a12423          	sw	a0,8(sp)
 2000304:	00c12623          	sw	a2,12(sp)
 2000308:	00810513          	addi	a0,sp,8
 200030c:	00000097          	auipc	ra,0x0
 2000310:	e00080e7          	jalr	-512(ra) # 200010c <_ZN16risc0_zkvm_guest3env6commit17hf7329d0a59cb7b9eE>
 2000314:	02c12083          	lw	ra,44(sp)
 2000318:	02812403          	lw	s0,40(sp)
 200031c:	02412483          	lw	s1,36(sp)
 2000320:	02012903          	lw	s2,32(sp)
 2000324:	03010113          	addi	sp,sp,48
 2000328:	00008067          	ret
 200032c:	00910503          	lb	a0,9(sp)
 2000330:	00a10423          	sb	a0,8(sp)
 2000334:	02003537          	lui	a0,0x2003
 2000338:	cec50513          	addi	a0,a0,-788 # 2002cec <anon.ad9603a55ed4bb67655d95fa3ca6f0ee.4.llvm.5690797283130860114>
 200033c:	020035b7          	lui	a1,0x2003
 2000340:	d1858693          	addi	a3,a1,-744 # 2002d18 <anon.ad9603a55ed4bb67655d95fa3ca6f0ee.5.llvm.5690797283130860114>
 2000344:	020035b7          	lui	a1,0x2003
 2000348:	cdc58713          	addi	a4,a1,-804 # 2002cdc <anon.ad9603a55ed4bb67655d95fa3ca6f0ee.3.llvm.5690797283130860114>
 200034c:	02b00593          	li	a1,43
 2000350:	00810613          	addi	a2,sp,8
 2000354:	00002097          	auipc	ra,0x2
 2000358:	364080e7          	jalr	868(ra) # 20026b8 <_ZN4core6result13unwrap_failed17h9f2f5272bd1199e5E>
 200035c:	c0001073          	unimp
 2000360:	02003537          	lui	a0,0x2003
 2000364:	d3850513          	addi	a0,a0,-712 # 2002d38 <.Lanon.b0cf36cc0b98861197cc79eb9e758305.2>
 2000368:	00a12423          	sw	a0,8(sp)
 200036c:	00100513          	li	a0,1
 2000370:	00a12623          	sw	a0,12(sp)
 2000374:	00012823          	sw	zero,16(sp)
 2000378:	02003537          	lui	a0,0x2003
 200037c:	d2850513          	addi	a0,a0,-728 # 2002d28 <.Lanon.b0cf36cc0b98861197cc79eb9e758305.1>
 2000380:	00a12c23          	sw	a0,24(sp)
 2000384:	00012e23          	sw	zero,28(sp)
 2000388:	02003537          	lui	a0,0x2003
 200038c:	d5450593          	addi	a1,a0,-684 # 2002d54 <.Lanon.b0cf36cc0b98861197cc79eb9e758305.4>
 2000390:	00810513          	addi	a0,sp,8
 2000394:	00002097          	auipc	ra,0x2
 2000398:	174080e7          	jalr	372(ra) # 2002508 <_ZN4core9panicking9panic_fmt17h2f79f0b41003eeb7E>
 200039c:	c0001073          	unimp
 20003a0:	02003537          	lui	a0,0x2003
 20003a4:	d6450513          	addi	a0,a0,-668 # 2002d64 <.Lanon.b0cf36cc0b98861197cc79eb9e758305.4+0x10>
 20003a8:	020035b7          	lui	a1,0x2003
 20003ac:	d8458613          	addi	a2,a1,-636 # 2002d84 <.Lanon.b0cf36cc0b98861197cc79eb9e758305.6>
 20003b0:	01000593          	li	a1,16
 20003b4:	00002097          	auipc	ra,0x2
 20003b8:	378080e7          	jalr	888(ra) # 200272c <_ZN4core6option13expect_failed17hb975e4d0155af363E>
 20003bc:	c0001073          	unimp

020003c0 <__rust_alloc>:
 20003c0:	00000317          	auipc	t1,0x0
 20003c4:	4f030067          	jr	1264(t1) # 20008b0 <__rg_alloc>

020003c8 <__rust_realloc>:
 20003c8:	00000317          	auipc	t1,0x0
 20003cc:	54830067          	jr	1352(t1) # 2000910 <__rg_realloc>

020003d0 <__rust_alloc_error_handler>:
 20003d0:	00001317          	auipc	t1,0x1
 20003d4:	c4030067          	jr	-960(t1) # 2001010 <__rg_oom>

020003d8 <_ZN16risc0_zkvm_guest3env8finalize17h9c323c42e1ee847fE>:
 20003d8:	fd010113          	addi	sp,sp,-48
 20003dc:	02112623          	sw	ra,44(sp)
 20003e0:	02812423          	sw	s0,40(sp)
 20003e4:	02912223          	sw	s1,36(sp)
 20003e8:	03212023          	sw	s2,32(sp)
 20003ec:	01312e23          	sw	s3,28(sp)
 20003f0:	01412c23          	sw	s4,24(sp)
 20003f4:	009005b7          	lui	a1,0x900
 20003f8:	0205a903          	lw	s2,32(a1) # 900020 <_ZN16risc0_zkvm_guest3env3ENV17h1007d75372db3e76E+0x18>
 20003fc:	00050413          	mv	s0,a0
 2000400:	00291493          	slli	s1,s2,0x2
 2000404:	00912023          	sw	s1,0(sp)
 2000408:	03f00537          	lui	a0,0x3f00
 200040c:	00a12223          	sw	a0,4(sp)
 2000410:	00010513          	mv	a0,sp
 2000414:	00010993          	mv	s3,sp
 2000418:	00000097          	auipc	ra,0x0
 200041c:	710080e7          	jalr	1808(ra) # 2000b28 <_ZN16risc0_zkvm_guest14memory_barrier17h1251307f86967f98E>
 2000420:	01f00537          	lui	a0,0x1f00
 2000424:	00800593          	li	a1,8
 2000428:	01352223          	sw	s3,4(a0) # 1f00004 <__heap_end+0x100004>
 200042c:	0525ea63          	bltu	a1,s2,2000480 <_ZN16risc0_zkvm_guest3env8finalize17h9c323c42e1ee847fE+0xa8>
 2000430:	02090863          	beqz	s2,2000460 <_ZN16risc0_zkvm_guest3env8finalize17h9c323c42e1ee847fE+0x88>
 2000434:	03f00537          	lui	a0,0x3f00
 2000438:	00090593          	mv	a1,s2
 200043c:	00040613          	mv	a2,s0
 2000440:	00052683          	lw	a3,0(a0) # 3f00000 <anon.21be27dcbcfea609e6fb5c090ac782fb.31.llvm.13982520288002575779+0x1efc998>
 2000444:	00d62023          	sw	a3,0(a2) # 500000 <__bss_size+0x4fffb0>
 2000448:	00450513          	addi	a0,a0,4
 200044c:	fff58593          	addi	a1,a1,-1
 2000450:	00460613          	addi	a2,a2,4
 2000454:	fe0596e3          	bnez	a1,2000440 <_ZN16risc0_zkvm_guest3env8finalize17h9c323c42e1ee847fE+0x68>
 2000458:	00800513          	li	a0,8
 200045c:	0ca97663          	bgeu	s2,a0,2000528 <_ZN16risc0_zkvm_guest3env8finalize17h9c323c42e1ee847fE+0x150>
 2000460:	00940533          	add	a0,s0,s1
 2000464:	ff890593          	addi	a1,s2,-8
 2000468:	00058613          	mv	a2,a1
 200046c:	00052023          	sw	zero,0(a0)
 2000470:	00158593          	addi	a1,a1,1
 2000474:	00450513          	addi	a0,a0,4
 2000478:	fec5f8e3          	bgeu	a1,a2,2000468 <_ZN16risc0_zkvm_guest3env8finalize17h9c323c42e1ee847fE+0x90>
 200047c:	0ac0006f          	j	2000528 <_ZN16risc0_zkvm_guest3env8finalize17h9c323c42e1ee847fE+0x150>
 2000480:	00448513          	addi	a0,s1,4
 2000484:	00255513          	srli	a0,a0,0x2
 2000488:	01150913          	addi	s2,a0,17
 200048c:	ff097713          	andi	a4,s2,-16
 2000490:	00040537          	lui	a0,0x40
 2000494:	00150513          	addi	a0,a0,1 # 40001 <__bss_size+0x3ffb1>
 2000498:	0ea77063          	bgeu	a4,a0,2000578 <_ZN16risc0_zkvm_guest3env8finalize17h9c323c42e1ee847fE+0x1a0>
 200049c:	03f00537          	lui	a0,0x3f00
 20004a0:	00100693          	li	a3,1
 20004a4:	03f009b7          	lui	s3,0x3f00
 20004a8:	00070593          	mv	a1,a4
 20004ac:	00048613          	mv	a2,s1
 20004b0:	00000097          	auipc	ra,0x0
 20004b4:	1dc080e7          	jalr	476(ra) # 200068c <_ZN16risc0_zkvm_guest3sha11add_trailer17h7cac573bec9ad2fdE>
 20004b8:	00900537          	lui	a0,0x900
 20004bc:	00452583          	lw	a1,4(a0) # 900004 <_ZN16risc0_zkvm_guest3sha8CUR_DESC17h6704435e4d2fed2cE.0.llvm.11067264371534210133>
 20004c0:	00495913          	srli	s2,s2,0x4
 20004c4:	00459613          	slli	a2,a1,0x4
 20004c8:	02a006b7          	lui	a3,0x2a00
 20004cc:	00d60a33          	add	s4,a2,a3
 20004d0:	00158593          	addi	a1,a1,1
 20004d4:	00b52223          	sw	a1,4(a0)
 20004d8:	03f00537          	lui	a0,0x3f00
 20004dc:	00000097          	auipc	ra,0x0
 20004e0:	64c080e7          	jalr	1612(ra) # 2000b28 <_ZN16risc0_zkvm_guest14memory_barrier17h1251307f86967f98E>
 20004e4:	01212023          	sw	s2,0(sp)
 20004e8:	00012a23          	sw	zero,20(sp)
 20004ec:	01312823          	sw	s3,16(sp)
 20004f0:	00812623          	sw	s0,12(sp)
 20004f4:	00012503          	lw	a0,0(sp)
 20004f8:	00aa2023          	sw	a0,0(s4)
 20004fc:	01412503          	lw	a0,20(sp)
 2000500:	004a6593          	ori	a1,s4,4
 2000504:	00a5a023          	sw	a0,0(a1)
 2000508:	01012503          	lw	a0,16(sp)
 200050c:	008a6593          	ori	a1,s4,8
 2000510:	00a5a023          	sw	a0,0(a1)
 2000514:	00c12503          	lw	a0,12(sp)
 2000518:	00ca6593          	ori	a1,s4,12
 200051c:	00a5a023          	sw	a0,0(a1)
 2000520:	01f00537          	lui	a0,0x1f00
 2000524:	01452023          	sw	s4,0(a0) # 1f00000 <__heap_end+0x100000>
 2000528:	02942023          	sw	s1,32(s0)
 200052c:	00040513          	mv	a0,s0
 2000530:	00000097          	auipc	ra,0x0
 2000534:	5f8080e7          	jalr	1528(ra) # 2000b28 <_ZN16risc0_zkvm_guest14memory_barrier17h1251307f86967f98E>
 2000538:	00900537          	lui	a0,0x900
 200053c:	00452583          	lw	a1,4(a0) # 900004 <_ZN16risc0_zkvm_guest3sha8CUR_DESC17h6704435e4d2fed2cE.0.llvm.11067264371534210133>
 2000540:	00158613          	addi	a2,a1,1
 2000544:	00c52223          	sw	a2,4(a0)
 2000548:	00459513          	slli	a0,a1,0x4
 200054c:	02a005b7          	lui	a1,0x2a00
 2000550:	00b50533          	add	a0,a0,a1
 2000554:	00052023          	sw	zero,0(a0)
 2000558:	02c12083          	lw	ra,44(sp)
 200055c:	02812403          	lw	s0,40(sp)
 2000560:	02412483          	lw	s1,36(sp)
 2000564:	02012903          	lw	s2,32(sp)
 2000568:	01c12983          	lw	s3,28(sp)
 200056c:	01812a03          	lw	s4,24(sp)
 2000570:	03010113          	addi	sp,sp,48
 2000574:	00008067          	ret
 2000578:	02003537          	lui	a0,0x2003
 200057c:	de050613          	addi	a2,a0,-544 # 2002de0 <anon.d73996fa1028e07f6fa931ef6ab18918.6.llvm.13258347182913583307>
 2000580:	000405b7          	lui	a1,0x40
 2000584:	00070513          	mv	a0,a4
 2000588:	00002097          	auipc	ra,0x2
 200058c:	4a0080e7          	jalr	1184(ra) # 2002a28 <_ZN4core5slice5index24slice_end_index_len_fail17h48ec9d596c6021f4E>
 2000590:	c0001073          	unimp

02000594 <_ZN16risc0_zkvm_guest3env3Env9send_recv17hd6df1e7e95d40ceaE>:
 2000594:	01f00737          	lui	a4,0x1f00
 2000598:	00b72a23          	sw	a1,20(a4) # 1f00014 <__heap_end+0x100014>
 200059c:	00d72c23          	sw	a3,24(a4)
 20005a0:	00c72e23          	sw	a2,28(a4)
 20005a4:	01c52683          	lw	a3,28(a0)
 20005a8:	00269593          	slli	a1,a3,0x2
 20005ac:	01e00637          	lui	a2,0x1e00
 20005b0:	00c585b3          	add	a1,a1,a2
 20005b4:	0005a583          	lw	a1,0(a1) # 40000 <__bss_size+0x3ffb0>
 20005b8:	00168713          	addi	a4,a3,1 # 2a00001 <anon.21be27dcbcfea609e6fb5c090ac782fb.31.llvm.13982520288002575779+0x9fc999>
 20005bc:	00358793          	addi	a5,a1,3
 20005c0:	ffc7f693          	andi	a3,a5,-4
 20005c4:	0027d793          	srli	a5,a5,0x2
 20005c8:	00e787b3          	add	a5,a5,a4
 20005cc:	00f52e23          	sw	a5,28(a0)
 20005d0:	00b6e863          	bltu	a3,a1,20005e0 <_ZN16risc0_zkvm_guest3env3Env9send_recv17hd6df1e7e95d40ceaE+0x4c>
 20005d4:	00271513          	slli	a0,a4,0x2
 20005d8:	00c50533          	add	a0,a0,a2
 20005dc:	00008067          	ret
 20005e0:	02003537          	lui	a0,0x2003
 20005e4:	dd050613          	addi	a2,a0,-560 # 2002dd0 <.Lanon.d73996fa1028e07f6fa931ef6ab18918.4>
 20005e8:	00058513          	mv	a0,a1
 20005ec:	00068593          	mv	a1,a3
 20005f0:	00002097          	auipc	ra,0x2
 20005f4:	438080e7          	jalr	1080(ra) # 2002a28 <_ZN4core5slice5index24slice_end_index_len_fail17h48ec9d596c6021f4E>
 20005f8:	c0001073          	unimp

020005fc <_ZN16risc0_zkvm_guest3env3Env13initial_input17ha6080fad28469a2cE>:
 20005fc:	ff010113          	addi	sp,sp,-16
 2000600:	00112623          	sw	ra,12(sp)
 2000604:	00812423          	sw	s0,8(sp)
 2000608:	00912223          	sw	s1,4(sp)
 200060c:	00050413          	mv	s0,a0
 2000610:	02052503          	lw	a0,32(a0)
 2000614:	02040493          	addi	s1,s0,32
 2000618:	04051e63          	bnez	a0,2000674 <_ZN16risc0_zkvm_guest3env3Env13initial_input17ha6080fad28469a2cE+0x78>
 200061c:	01f00537          	lui	a0,0x1f00
 2000620:	00052a23          	sw	zero,20(a0) # 1f00014 <__heap_end+0x100014>
 2000624:	00052c23          	sw	zero,24(a0)
 2000628:	020035b7          	lui	a1,0x2003
 200062c:	de058593          	addi	a1,a1,-544 # 2002de0 <anon.d73996fa1028e07f6fa931ef6ab18918.6.llvm.13258347182913583307>
 2000630:	00b52e23          	sw	a1,28(a0)
 2000634:	01c42503          	lw	a0,28(s0)
 2000638:	00251593          	slli	a1,a0,0x2
 200063c:	01e00637          	lui	a2,0x1e00
 2000640:	00c585b3          	add	a1,a1,a2
 2000644:	0005a583          	lw	a1,0(a1)
 2000648:	00150693          	addi	a3,a0,1
 200064c:	00358513          	addi	a0,a1,3
 2000650:	00255593          	srli	a1,a0,0x2
 2000654:	00269513          	slli	a0,a3,0x2
 2000658:	00c50533          	add	a0,a0,a2
 200065c:	00d58633          	add	a2,a1,a3
 2000660:	00c42e23          	sw	a2,28(s0)
 2000664:	00000097          	auipc	ra,0x0
 2000668:	618080e7          	jalr	1560(ra) # 2000c7c <_ZN16risc0_zkvm_serde12deserializer12Deserializer3new17h784b5d95b7ed458dE>
 200066c:	02a42023          	sw	a0,32(s0)
 2000670:	02b42223          	sw	a1,36(s0)
 2000674:	00048513          	mv	a0,s1
 2000678:	00c12083          	lw	ra,12(sp)
 200067c:	00812403          	lw	s0,8(sp)
 2000680:	00412483          	lw	s1,4(sp)
 2000684:	01010113          	addi	sp,sp,16
 2000688:	00008067          	ret

0200068c <_ZN16risc0_zkvm_guest3sha11add_trailer17h7cac573bec9ad2fdE>:
 200068c:	fd010113          	addi	sp,sp,-48
 2000690:	02112623          	sw	ra,44(sp)
 2000694:	02812423          	sw	s0,40(sp)
 2000698:	02912223          	sw	s1,36(sp)
 200069c:	03212023          	sw	s2,32(sp)
 20006a0:	00050493          	mv	s1,a0
 20006a4:	00460513          	addi	a0,a2,4 # 1e00004 <__heap_end+0x4>
 20006a8:	00255513          	srli	a0,a0,0x2
 20006ac:	01150513          	addi	a0,a0,17
 20006b0:	ff057513          	andi	a0,a0,-16
 20006b4:	00a12023          	sw	a0,0(sp)
 20006b8:	00b12223          	sw	a1,4(sp)
 20006bc:	10b51463          	bne	a0,a1,20007c4 <_ZN16risc0_zkvm_guest3sha11add_trailer17h7cac573bec9ad2fdE+0x138>
 20006c0:	00060413          	mv	s0,a2
 20006c4:	00265513          	srli	a0,a2,0x2
 20006c8:	02068463          	beqz	a3,20006f0 <_ZN16risc0_zkvm_guest3sha11add_trailer17h7cac573bec9ad2fdE+0x64>
 20006cc:	00347613          	andi	a2,s0,3
 20006d0:	00c12223          	sw	a2,4(sp)
 20006d4:	12061e63          	bnez	a2,2000810 <_ZN16risc0_zkvm_guest3sha11add_trailer17h7cac573bec9ad2fdE+0x184>
 20006d8:	0ab57e63          	bgeu	a0,a1,2000794 <_ZN16risc0_zkvm_guest3sha11add_trailer17h7cac573bec9ad2fdE+0x108>
 20006dc:	00251613          	slli	a2,a0,0x2
 20006e0:	00c48633          	add	a2,s1,a2
 20006e4:	08000693          	li	a3,128
 20006e8:	00d62023          	sw	a3,0(a2)
 20006ec:	0180006f          	j	2000704 <_ZN16risc0_zkvm_guest3sha11add_trailer17h7cac573bec9ad2fdE+0x78>
 20006f0:	00259693          	slli	a3,a1,0x2
 20006f4:	0ad47a63          	bgeu	s0,a3,20007a8 <_ZN16risc0_zkvm_guest3sha11add_trailer17h7cac573bec9ad2fdE+0x11c>
 20006f8:	00848633          	add	a2,s1,s0
 20006fc:	08000693          	li	a3,128
 2000700:	00d60023          	sb	a3,0(a2)
 2000704:	fff58913          	addi	s2,a1,-1
 2000708:	00150693          	addi	a3,a0,1
 200070c:	0d257663          	bgeu	a0,s2,20007d8 <_ZN16risc0_zkvm_guest3sha11add_trailer17h7cac573bec9ad2fdE+0x14c>
 2000710:	0e058263          	beqz	a1,20007f4 <_ZN16risc0_zkvm_guest3sha11add_trailer17h7cac573bec9ad2fdE+0x168>
 2000714:	02d90463          	beq	s2,a3,200073c <_ZN16risc0_zkvm_guest3sha11add_trailer17h7cac573bec9ad2fdE+0xb0>
 2000718:	00269513          	slli	a0,a3,0x2
 200071c:	00a48533          	add	a0,s1,a0
 2000720:	00259593          	slli	a1,a1,0x2
 2000724:	ffc47613          	andi	a2,s0,-4
 2000728:	40c585b3          	sub	a1,a1,a2
 200072c:	ff858613          	addi	a2,a1,-8
 2000730:	00000593          	li	a1,0
 2000734:	00002097          	auipc	ra,0x2
 2000738:	3e4080e7          	jalr	996(ra) # 2002b18 <memset>
 200073c:	00341513          	slli	a0,s0,0x3
 2000740:	00545593          	srli	a1,s0,0x5
 2000744:	00010637          	lui	a2,0x10
 2000748:	f0060613          	addi	a2,a2,-256 # ff00 <__bss_size+0xfeb0>
 200074c:	00c5f5b3          	and	a1,a1,a2
 2000750:	01855513          	srli	a0,a0,0x18
 2000754:	00a5e533          	or	a0,a1,a0
 2000758:	00b41593          	slli	a1,s0,0xb
 200075c:	00ff0637          	lui	a2,0xff0
 2000760:	00c5f5b3          	and	a1,a1,a2
 2000764:	01b41613          	slli	a2,s0,0x1b
 2000768:	00b665b3          	or	a1,a2,a1
 200076c:	00a5e533          	or	a0,a1,a0
 2000770:	00291593          	slli	a1,s2,0x2
 2000774:	00b485b3          	add	a1,s1,a1
 2000778:	00a5a023          	sw	a0,0(a1)
 200077c:	02c12083          	lw	ra,44(sp)
 2000780:	02812403          	lw	s0,40(sp)
 2000784:	02412483          	lw	s1,36(sp)
 2000788:	02012903          	lw	s2,32(sp)
 200078c:	03010113          	addi	sp,sp,48
 2000790:	00008067          	ret
 2000794:	02003637          	lui	a2,0x2003
 2000798:	e5060613          	addi	a2,a2,-432 # 2002e50 <anon.5631d3a3d55ce77f2597f20e6d4ec83e.7.llvm.11067264371534210133>
 200079c:	00002097          	auipc	ra,0x2
 20007a0:	d08080e7          	jalr	-760(ra) # 20024a4 <_ZN4core9panicking18panic_bounds_check17h49746aec5244fac9E>
 20007a4:	c0001073          	unimp
 20007a8:	02003537          	lui	a0,0x2003
 20007ac:	e6050613          	addi	a2,a0,-416 # 2002e60 <anon.5631d3a3d55ce77f2597f20e6d4ec83e.8.llvm.11067264371534210133>
 20007b0:	00040513          	mv	a0,s0
 20007b4:	00068593          	mv	a1,a3
 20007b8:	00002097          	auipc	ra,0x2
 20007bc:	cec080e7          	jalr	-788(ra) # 20024a4 <_ZN4core9panicking18panic_bounds_check17h49746aec5244fac9E>
 20007c0:	c0001073          	unimp
 20007c4:	00012423          	sw	zero,8(sp)
 20007c8:	02003537          	lui	a0,0x2003
 20007cc:	e3050713          	addi	a4,a0,-464 # 2002e30 <anon.5631d3a3d55ce77f2597f20e6d4ec83e.5.llvm.11067264371534210133>
 20007d0:	00010593          	mv	a1,sp
 20007d4:	0500006f          	j	2000824 <_ZN16risc0_zkvm_guest3sha11add_trailer17h7cac573bec9ad2fdE+0x198>
 20007d8:	02003537          	lui	a0,0x2003
 20007dc:	e7050613          	addi	a2,a0,-400 # 2002e70 <anon.5631d3a3d55ce77f2597f20e6d4ec83e.9.llvm.11067264371534210133>
 20007e0:	00068513          	mv	a0,a3
 20007e4:	00090593          	mv	a1,s2
 20007e8:	00002097          	auipc	ra,0x2
 20007ec:	2b4080e7          	jalr	692(ra) # 2002a9c <_ZN4core5slice5index22slice_index_order_fail17h42d4f5304e09dd2bE>
 20007f0:	c0001073          	unimp
 20007f4:	02003537          	lui	a0,0x2003
 20007f8:	e7050613          	addi	a2,a0,-400 # 2002e70 <anon.5631d3a3d55ce77f2597f20e6d4ec83e.9.llvm.11067264371534210133>
 20007fc:	00090513          	mv	a0,s2
 2000800:	00000593          	li	a1,0
 2000804:	00002097          	auipc	ra,0x2
 2000808:	224080e7          	jalr	548(ra) # 2002a28 <_ZN4core5slice5index24slice_end_index_len_fail17h48ec9d596c6021f4E>
 200080c:	c0001073          	unimp
 2000810:	00012423          	sw	zero,8(sp)
 2000814:	02003537          	lui	a0,0x2003
 2000818:	df050593          	addi	a1,a0,-528 # 2002df0 <anon.5631d3a3d55ce77f2597f20e6d4ec83e.1.llvm.11067264371534210133>
 200081c:	02003537          	lui	a0,0x2003
 2000820:	e4050713          	addi	a4,a0,-448 # 2002e40 <anon.5631d3a3d55ce77f2597f20e6d4ec83e.6.llvm.11067264371534210133>
 2000824:	00410613          	addi	a2,sp,4
 2000828:	00810693          	addi	a3,sp,8
 200082c:	00000513          	li	a0,0
 2000830:	00000097          	auipc	ra,0x0
 2000834:	010080e7          	jalr	16(ra) # 2000840 <_ZN4core9panicking13assert_failed17h5cc564aeed2b4049E>
 2000838:	c0001073          	unimp

0200083c <_ZN4core3ptr30drop_in_place$LT$$RF$usize$GT$17hf090a9500137dcfaE.llvm.5664053378227374743>:
 200083c:	00008067          	ret

02000840 <_ZN4core9panicking13assert_failed17h5cc564aeed2b4049E>:
 2000840:	fe010113          	addi	sp,sp,-32
 2000844:	00070813          	mv	a6,a4
 2000848:	0146a703          	lw	a4,20(a3)
 200084c:	0106a783          	lw	a5,16(a3)
 2000850:	00b12023          	sw	a1,0(sp)
 2000854:	00c12223          	sw	a2,4(sp)
 2000858:	00e12e23          	sw	a4,28(sp)
 200085c:	00f12c23          	sw	a5,24(sp)
 2000860:	00c6a583          	lw	a1,12(a3)
 2000864:	0086a603          	lw	a2,8(a3)
 2000868:	0046a703          	lw	a4,4(a3)
 200086c:	0006a683          	lw	a3,0(a3)
 2000870:	00b12a23          	sw	a1,20(sp)
 2000874:	00c12823          	sw	a2,16(sp)
 2000878:	00e12623          	sw	a4,12(sp)
 200087c:	00d12423          	sw	a3,8(sp)
 2000880:	020035b7          	lui	a1,0x2003
 2000884:	e8058613          	addi	a2,a1,-384 # 2002e80 <anon.c359eb7203179d117619283b0de98f92.0.llvm.5664053378227374743>
 2000888:	00010593          	mv	a1,sp
 200088c:	00410693          	addi	a3,sp,4
 2000890:	00810793          	addi	a5,sp,8
 2000894:	00060713          	mv	a4,a2
 2000898:	00002097          	auipc	ra,0x2
 200089c:	cac080e7          	jalr	-852(ra) # 2002544 <_ZN4core9panicking19assert_failed_inner17h423894f4fbad8f91E>
 20008a0:	c0001073          	unimp

020008a4 <rust_oom>:
 20008a4:	fffff097          	auipc	ra,0xfffff
 20008a8:	7a8080e7          	jalr	1960(ra) # 200004c <_fault>
 20008ac:	c0001073          	unimp

020008b0 <__rg_alloc>:
 20008b0:	009005b7          	lui	a1,0x900
 20008b4:	0005a603          	lw	a2,0(a1) # 900000 <_ZN16risc0_zkvm_guest5alloc4HEAP17hb8fd5a3a2d6f10a3E.0>
 20008b8:	00050593          	mv	a1,a0
 20008bc:	00360513          	addi	a0,a2,3
 20008c0:	ffc57513          	andi	a0,a0,-4
 20008c4:	00b505b3          	add	a1,a0,a1
 20008c8:	00a5ee63          	bltu	a1,a0,20008e4 <__rg_alloc+0x34>
 20008cc:	01e00637          	lui	a2,0x1e00
 20008d0:	00160613          	addi	a2,a2,1 # 1e00001 <__heap_end+0x1>
 20008d4:	02c5f863          	bgeu	a1,a2,2000904 <__rg_alloc+0x54>
 20008d8:	00900637          	lui	a2,0x900
 20008dc:	00b62023          	sw	a1,0(a2) # 900000 <_ZN16risc0_zkvm_guest5alloc4HEAP17hb8fd5a3a2d6f10a3E.0>
 20008e0:	00008067          	ret
 20008e4:	02003537          	lui	a0,0x2003
 20008e8:	e9050513          	addi	a0,a0,-368 # 2002e90 <.Lanon.740d60a687a3cdeded2a631a5ce0e880.0>
 20008ec:	020035b7          	lui	a1,0x2003
 20008f0:	ef858613          	addi	a2,a1,-264 # 2002ef8 <.Lanon.740d60a687a3cdeded2a631a5ce0e880.2>
 20008f4:	02b00593          	li	a1,43
 20008f8:	00002097          	auipc	ra,0x2
 20008fc:	b68080e7          	jalr	-1176(ra) # 2002460 <_ZN4core9panicking5panic17hf6ba736fe98a128dE>
 2000900:	c0001073          	unimp
 2000904:	fffff097          	auipc	ra,0xfffff
 2000908:	748080e7          	jalr	1864(ra) # 200004c <_fault>
 200090c:	c0001073          	unimp

02000910 <__rg_realloc>:
 2000910:	ff010113          	addi	sp,sp,-16
 2000914:	00112623          	sw	ra,12(sp)
 2000918:	00812423          	sw	s0,8(sp)
 200091c:	00900637          	lui	a2,0x900
 2000920:	00062603          	lw	a2,0(a2) # 900000 <_ZN16risc0_zkvm_guest5alloc4HEAP17hb8fd5a3a2d6f10a3E.0>
 2000924:	00360613          	addi	a2,a2,3
 2000928:	ffc67413          	andi	s0,a2,-4
 200092c:	00d40733          	add	a4,s0,a3
 2000930:	04876863          	bltu	a4,s0,2000980 <__rg_realloc+0x70>
 2000934:	00050613          	mv	a2,a0
 2000938:	01e00537          	lui	a0,0x1e00
 200093c:	00150513          	addi	a0,a0,1 # 1e00001 <__heap_end+0x1>
 2000940:	06a77063          	bgeu	a4,a0,20009a0 <__rg_realloc+0x90>
 2000944:	00900537          	lui	a0,0x900
 2000948:	00e52023          	sw	a4,0(a0) # 900000 <_ZN16risc0_zkvm_guest5alloc4HEAP17hb8fd5a3a2d6f10a3E.0>
 200094c:	02040063          	beqz	s0,200096c <__rg_realloc+0x5c>
 2000950:	00b6e463          	bltu	a3,a1,2000958 <__rg_realloc+0x48>
 2000954:	00058693          	mv	a3,a1
 2000958:	00040513          	mv	a0,s0
 200095c:	00060593          	mv	a1,a2
 2000960:	00068613          	mv	a2,a3
 2000964:	00002097          	auipc	ra,0x2
 2000968:	1ac080e7          	jalr	428(ra) # 2002b10 <memcpy>
 200096c:	00040513          	mv	a0,s0
 2000970:	00c12083          	lw	ra,12(sp)
 2000974:	00812403          	lw	s0,8(sp)
 2000978:	01010113          	addi	sp,sp,16
 200097c:	00008067          	ret
 2000980:	02003537          	lui	a0,0x2003
 2000984:	e9050513          	addi	a0,a0,-368 # 2002e90 <.Lanon.740d60a687a3cdeded2a631a5ce0e880.0>
 2000988:	020035b7          	lui	a1,0x2003
 200098c:	ef858613          	addi	a2,a1,-264 # 2002ef8 <.Lanon.740d60a687a3cdeded2a631a5ce0e880.2>
 2000990:	02b00593          	li	a1,43
 2000994:	00002097          	auipc	ra,0x2
 2000998:	acc080e7          	jalr	-1332(ra) # 2002460 <_ZN4core9panicking5panic17hf6ba736fe98a128dE>
 200099c:	c0001073          	unimp
 20009a0:	fffff097          	auipc	ra,0xfffff
 20009a4:	6ac080e7          	jalr	1708(ra) # 200004c <_fault>
 20009a8:	c0001073          	unimp

020009ac <_ZN5alloc3fmt6format17h0223af22f1e0ee6aE>:
 20009ac:	fd010113          	addi	sp,sp,-48
 20009b0:	02112623          	sw	ra,44(sp)
 20009b4:	02812423          	sw	s0,40(sp)
 20009b8:	02912223          	sw	s1,36(sp)
 20009bc:	03212023          	sw	s2,32(sp)
 20009c0:	0045a683          	lw	a3,4(a1)
 20009c4:	0145a603          	lw	a2,20(a1)
 20009c8:	00100713          	li	a4,1
 20009cc:	00050413          	mv	s0,a0
 20009d0:	00e68e63          	beq	a3,a4,20009ec <_ZN5alloc3fmt6format17h0223af22f1e0ee6aE+0x40>
 20009d4:	00069e63          	bnez	a3,20009f0 <_ZN5alloc3fmt6format17h0223af22f1e0ee6aE+0x44>
 20009d8:	00061c63          	bnez	a2,20009f0 <_ZN5alloc3fmt6format17h0223af22f1e0ee6aE+0x44>
 20009dc:	00000493          	li	s1,0
 20009e0:	02003537          	lui	a0,0x2003
 20009e4:	f0850913          	addi	s2,a0,-248 # 2002f08 <.Lanon.bf9ac6c14cc51cdf0e31e5a7e9b3bf07.1>
 20009e8:	08c0006f          	j	2000a74 <_ZN5alloc3fmt6format17h0223af22f1e0ee6aE+0xc8>
 20009ec:	04060463          	beqz	a2,2000a34 <_ZN5alloc3fmt6format17h0223af22f1e0ee6aE+0x88>
 20009f0:	0145a503          	lw	a0,20(a1)
 20009f4:	0105a603          	lw	a2,16(a1)
 20009f8:	00a12e23          	sw	a0,28(sp)
 20009fc:	00c12c23          	sw	a2,24(sp)
 2000a00:	00c5a503          	lw	a0,12(a1)
 2000a04:	0085a603          	lw	a2,8(a1)
 2000a08:	0045a683          	lw	a3,4(a1)
 2000a0c:	0005a583          	lw	a1,0(a1)
 2000a10:	00a12a23          	sw	a0,20(sp)
 2000a14:	00c12823          	sw	a2,16(sp)
 2000a18:	00d12623          	sw	a3,12(sp)
 2000a1c:	00b12423          	sw	a1,8(sp)
 2000a20:	00810593          	addi	a1,sp,8
 2000a24:	00040513          	mv	a0,s0
 2000a28:	00000097          	auipc	ra,0x0
 2000a2c:	610080e7          	jalr	1552(ra) # 2001038 <_ZN5alloc3fmt6format12format_inner17h3939dcfa53d8d639E>
 2000a30:	0640006f          	j	2000a94 <_ZN5alloc3fmt6format17h0223af22f1e0ee6aE+0xe8>
 2000a34:	0005a503          	lw	a0,0(a1)
 2000a38:	00452483          	lw	s1,4(a0)
 2000a3c:	00052903          	lw	s2,0(a0)
 2000a40:	02048863          	beqz	s1,2000a70 <_ZN5alloc3fmt6format17h0223af22f1e0ee6aE+0xc4>
 2000a44:	0604c463          	bltz	s1,2000aac <_ZN5alloc3fmt6format17h0223af22f1e0ee6aE+0x100>
 2000a48:	00100593          	li	a1,1
 2000a4c:	00048513          	mv	a0,s1
 2000a50:	00000097          	auipc	ra,0x0
 2000a54:	970080e7          	jalr	-1680(ra) # 20003c0 <__rust_alloc>
 2000a58:	02051063          	bnez	a0,2000a78 <_ZN5alloc3fmt6format17h0223af22f1e0ee6aE+0xcc>
 2000a5c:	00100593          	li	a1,1
 2000a60:	00048513          	mv	a0,s1
 2000a64:	00000097          	auipc	ra,0x0
 2000a68:	594080e7          	jalr	1428(ra) # 2000ff8 <_ZN5alloc5alloc18handle_alloc_error17h4be0c033a83846a6E>
 2000a6c:	c0001073          	unimp
 2000a70:	00000493          	li	s1,0
 2000a74:	00100513          	li	a0,1
 2000a78:	00a42023          	sw	a0,0(s0)
 2000a7c:	00942223          	sw	s1,4(s0)
 2000a80:	00090593          	mv	a1,s2
 2000a84:	00048613          	mv	a2,s1
 2000a88:	00002097          	auipc	ra,0x2
 2000a8c:	088080e7          	jalr	136(ra) # 2002b10 <memcpy>
 2000a90:	00942423          	sw	s1,8(s0)
 2000a94:	02c12083          	lw	ra,44(sp)
 2000a98:	02812403          	lw	s0,40(sp)
 2000a9c:	02412483          	lw	s1,36(sp)
 2000aa0:	02012903          	lw	s2,32(sp)
 2000aa4:	03010113          	addi	sp,sp,48
 2000aa8:	00008067          	ret
 2000aac:	00000097          	auipc	ra,0x0
 2000ab0:	508080e7          	jalr	1288(ra) # 2000fb4 <_ZN5alloc7raw_vec17capacity_overflow17hef6c4291d27c2277E>
 2000ab4:	c0001073          	unimp

02000ab8 <rust_begin_unwind>:
 2000ab8:	fc010113          	addi	sp,sp,-64
 2000abc:	02112e23          	sw	ra,60(sp)
 2000ac0:	00a12223          	sw	a0,4(sp)
 2000ac4:	00410513          	addi	a0,sp,4
 2000ac8:	02a12823          	sw	a0,48(sp)
 2000acc:	02001537          	lui	a0,0x2001
 2000ad0:	b2c50513          	addi	a0,a0,-1236 # 2000b2c <_ZN44_$LT$$RF$T$u20$as$u20$core..fmt..Display$GT$3fmt17hd81d29ff4ad8daa9E>
 2000ad4:	02a12a23          	sw	a0,52(sp)
 2000ad8:	02003537          	lui	a0,0x2003
 2000adc:	f0c50513          	addi	a0,a0,-244 # 2002f0c <.Lanon.bf9ac6c14cc51cdf0e31e5a7e9b3bf07.2>
 2000ae0:	00a12c23          	sw	a0,24(sp)
 2000ae4:	00200513          	li	a0,2
 2000ae8:	00a12e23          	sw	a0,28(sp)
 2000aec:	02012023          	sw	zero,32(sp)
 2000af0:	03010513          	addi	a0,sp,48
 2000af4:	02a12423          	sw	a0,40(sp)
 2000af8:	00100513          	li	a0,1
 2000afc:	02a12623          	sw	a0,44(sp)
 2000b00:	00810513          	addi	a0,sp,8
 2000b04:	01810593          	addi	a1,sp,24
 2000b08:	00000097          	auipc	ra,0x0
 2000b0c:	ea4080e7          	jalr	-348(ra) # 20009ac <_ZN5alloc3fmt6format17h0223af22f1e0ee6aE>
 2000b10:	00812503          	lw	a0,8(sp)
 2000b14:	01f005b7          	lui	a1,0x1f00
 2000b18:	00a5a423          	sw	a0,8(a1) # 1f00008 <__heap_end+0x100008>
 2000b1c:	fffff097          	auipc	ra,0xfffff
 2000b20:	530080e7          	jalr	1328(ra) # 200004c <_fault>
 2000b24:	c0001073          	unimp

02000b28 <_ZN16risc0_zkvm_guest14memory_barrier17h1251307f86967f98E>:
 2000b28:	00008067          	ret

02000b2c <_ZN44_$LT$$RF$T$u20$as$u20$core..fmt..Display$GT$3fmt17hd81d29ff4ad8daa9E>:
 2000b2c:	00052503          	lw	a0,0(a0)
 2000b30:	00001317          	auipc	t1,0x1
 2000b34:	7b030067          	jr	1968(t1) # 20022e0 <_ZN73_$LT$core..panic..panic_info..PanicInfo$u20$as$u20$core..fmt..Display$GT$3fmt17hee40d5be6fda54ceE>

02000b38 <_ZN42_$LT$$RF$T$u20$as$u20$core..fmt..Debug$GT$3fmt17hd67e0bb9020773f2E>:
 2000b38:	ff010113          	addi	sp,sp,-16
 2000b3c:	00112623          	sw	ra,12(sp)
 2000b40:	00812423          	sw	s0,8(sp)
 2000b44:	00912223          	sw	s1,4(sp)
 2000b48:	00052483          	lw	s1,0(a0)
 2000b4c:	00058413          	mv	s0,a1
 2000b50:	00058513          	mv	a0,a1
 2000b54:	00001097          	auipc	ra,0x1
 2000b58:	47c080e7          	jalr	1148(ra) # 2001fd0 <_ZN4core3fmt9Formatter15debug_lower_hex17h85ae48093de78bd8E>
 2000b5c:	02050263          	beqz	a0,2000b80 <_ZN42_$LT$$RF$T$u20$as$u20$core..fmt..Debug$GT$3fmt17hd67e0bb9020773f2E+0x48>
 2000b60:	00048513          	mv	a0,s1
 2000b64:	00040593          	mv	a1,s0
 2000b68:	00c12083          	lw	ra,12(sp)
 2000b6c:	00812403          	lw	s0,8(sp)
 2000b70:	00412483          	lw	s1,4(sp)
 2000b74:	01010113          	addi	sp,sp,16
 2000b78:	00001317          	auipc	t1,0x1
 2000b7c:	87430067          	jr	-1932(t1) # 20013ec <_ZN4core3fmt3num53_$LT$impl$u20$core..fmt..LowerHex$u20$for$u20$i32$GT$3fmt17hc7cb3265f3c72f9dE>
 2000b80:	00040513          	mv	a0,s0
 2000b84:	00001097          	auipc	ra,0x1
 2000b88:	45c080e7          	jalr	1116(ra) # 2001fe0 <_ZN4core3fmt9Formatter15debug_upper_hex17h4857b6d886493d64E>
 2000b8c:	02050263          	beqz	a0,2000bb0 <_ZN42_$LT$$RF$T$u20$as$u20$core..fmt..Debug$GT$3fmt17hd67e0bb9020773f2E+0x78>
 2000b90:	00048513          	mv	a0,s1
 2000b94:	00040593          	mv	a1,s0
 2000b98:	00c12083          	lw	ra,12(sp)
 2000b9c:	00812403          	lw	s0,8(sp)
 2000ba0:	00412483          	lw	s1,4(sp)
 2000ba4:	01010113          	addi	sp,sp,16
 2000ba8:	00001317          	auipc	t1,0x1
 2000bac:	8f430067          	jr	-1804(t1) # 200149c <_ZN4core3fmt3num53_$LT$impl$u20$core..fmt..UpperHex$u20$for$u20$i32$GT$3fmt17h7add5f86a613e1f9E>
 2000bb0:	00048513          	mv	a0,s1
 2000bb4:	00040593          	mv	a1,s0
 2000bb8:	00c12083          	lw	ra,12(sp)
 2000bbc:	00812403          	lw	s0,8(sp)
 2000bc0:	00412483          	lw	s1,4(sp)
 2000bc4:	01010113          	addi	sp,sp,16
 2000bc8:	00001317          	auipc	t1,0x1
 2000bcc:	6a430067          	jr	1700(t1) # 200226c <_ZN4core3fmt3num3imp52_$LT$impl$u20$core..fmt..Display$u20$for$u20$u32$GT$3fmt17h7dc147fbf5c515fcE>

02000bd0 <_ZN65_$LT$risc0_zkvm_serde..err..Error$u20$as$u20$core..fmt..Debug$GT$3fmt17h92247519242debd9E>:
 2000bd0:	00054503          	lbu	a0,0(a0)
 2000bd4:	00251513          	slli	a0,a0,0x2
 2000bd8:	02003637          	lui	a2,0x2003
 2000bdc:	f1c60613          	addi	a2,a2,-228 # 2002f1c <.LJTI2_0>
 2000be0:	00c50533          	add	a0,a0,a2
 2000be4:	00052603          	lw	a2,0(a0)
 2000be8:	00058513          	mv	a0,a1
 2000bec:	00060067          	jr	a2

02000bf0 <.LBB2_1>:
 2000bf0:	020035b7          	lui	a1,0x2003
 2000bf4:	fa758593          	addi	a1,a1,-89 # 2002fa7 <.Lanon.e9a87e92473d7171a211d0e5ecffeee5.13>
 2000bf8:	01200613          	li	a2,18
 2000bfc:	00001317          	auipc	t1,0x1
 2000c00:	3c430067          	jr	964(t1) # 2001fc0 <_ZN4core3fmt9Formatter9write_str17h3c60346ca7581e32E>

02000c04 <.LBB2_2>:
 2000c04:	020035b7          	lui	a1,0x2003
 2000c08:	f9558593          	addi	a1,a1,-107 # 2002f95 <.Lanon.e9a87e92473d7171a211d0e5ecffeee5.12>
 2000c0c:	01200613          	li	a2,18
 2000c10:	00001317          	auipc	t1,0x1
 2000c14:	3b030067          	jr	944(t1) # 2001fc0 <_ZN4core3fmt9Formatter9write_str17h3c60346ca7581e32E>

02000c18 <.LBB2_3>:
 2000c18:	020035b7          	lui	a1,0x2003
 2000c1c:	f8158593          	addi	a1,a1,-127 # 2002f81 <.Lanon.e9a87e92473d7171a211d0e5ecffeee5.11>
 2000c20:	01400613          	li	a2,20
 2000c24:	00001317          	auipc	t1,0x1
 2000c28:	39c30067          	jr	924(t1) # 2001fc0 <_ZN4core3fmt9Formatter9write_str17h3c60346ca7581e32E>

02000c2c <.LBB2_4>:
 2000c2c:	020035b7          	lui	a1,0x2003
 2000c30:	f6f58593          	addi	a1,a1,-145 # 2002f6f <.Lanon.e9a87e92473d7171a211d0e5ecffeee5.10>
 2000c34:	01200613          	li	a2,18
 2000c38:	00001317          	auipc	t1,0x1
 2000c3c:	38830067          	jr	904(t1) # 2001fc0 <_ZN4core3fmt9Formatter9write_str17h3c60346ca7581e32E>

02000c40 <.LBB2_5>:
 2000c40:	020035b7          	lui	a1,0x2003
 2000c44:	f5758593          	addi	a1,a1,-169 # 2002f57 <.Lanon.e9a87e92473d7171a211d0e5ecffeee5.9>
 2000c48:	01800613          	li	a2,24
 2000c4c:	00001317          	auipc	t1,0x1
 2000c50:	37430067          	jr	884(t1) # 2001fc0 <_ZN4core3fmt9Formatter9write_str17h3c60346ca7581e32E>

02000c54 <.LBB2_6>:
 2000c54:	020035b7          	lui	a1,0x2003
 2000c58:	f4b58593          	addi	a1,a1,-181 # 2002f4b <.Lanon.e9a87e92473d7171a211d0e5ecffeee5.8>
 2000c5c:	00c00613          	li	a2,12
 2000c60:	00001317          	auipc	t1,0x1
 2000c64:	36030067          	jr	864(t1) # 2001fc0 <_ZN4core3fmt9Formatter9write_str17h3c60346ca7581e32E>

02000c68 <.LBB2_7>:
 2000c68:	020035b7          	lui	a1,0x2003
 2000c6c:	f3858593          	addi	a1,a1,-200 # 2002f38 <.Lanon.e9a87e92473d7171a211d0e5ecffeee5.7>
 2000c70:	01300613          	li	a2,19
 2000c74:	00001317          	auipc	t1,0x1
 2000c78:	34c30067          	jr	844(t1) # 2001fc0 <_ZN4core3fmt9Formatter9write_str17h3c60346ca7581e32E>

02000c7c <_ZN16risc0_zkvm_serde12deserializer12Deserializer3new17h784b5d95b7ed458dE>:
 2000c7c:	00008067          	ret

02000c80 <_ZN16risc0_zkvm_serde12deserializer12Deserializer14try_take_dword17h7ee961cb62f386fbE>:
 2000c80:	0045a683          	lw	a3,4(a1)
 2000c84:	00100613          	li	a2,1
 2000c88:	02d67863          	bgeu	a2,a3,2000cb8 <_ZN16risc0_zkvm_serde12deserializer12Deserializer14try_take_dword17h7ee961cb62f386fbE+0x38>
 2000c8c:	0005a603          	lw	a2,0(a1)
 2000c90:	00860713          	addi	a4,a2,8
 2000c94:	ffe68693          	addi	a3,a3,-2
 2000c98:	00e5a023          	sw	a4,0(a1)
 2000c9c:	00d5a223          	sw	a3,4(a1)
 2000ca0:	00462583          	lw	a1,4(a2)
 2000ca4:	00062683          	lw	a3,0(a2)
 2000ca8:	00b52623          	sw	a1,12(a0)
 2000cac:	00d52423          	sw	a3,8(a0)
 2000cb0:	00050023          	sb	zero,0(a0)
 2000cb4:	00008067          	ret
 2000cb8:	00400593          	li	a1,4
 2000cbc:	00b500a3          	sb	a1,1(a0)
 2000cc0:	00c50023          	sb	a2,0(a0)
 2000cc4:	00008067          	ret

02000cc8 <_ZN98_$LT$risc0_zkvm_serde..serializer..Slice$u20$as$u20$risc0_zkvm_serde..serializer..StreamWriter$GT$13try_push_word17h18cabe6c51b6f2e5E>:
 2000cc8:	00852683          	lw	a3,8(a0)
 2000ccc:	00452703          	lw	a4,4(a0)
 2000cd0:	00600613          	li	a2,6
 2000cd4:	02e6f063          	bgeu	a3,a4,2000cf4 <_ZN98_$LT$risc0_zkvm_serde..serializer..Slice$u20$as$u20$risc0_zkvm_serde..serializer..StreamWriter$GT$13try_push_word17h18cabe6c51b6f2e5E+0x2c>
 2000cd8:	00052603          	lw	a2,0(a0)
 2000cdc:	00269713          	slli	a4,a3,0x2
 2000ce0:	00e60633          	add	a2,a2,a4
 2000ce4:	00b62023          	sw	a1,0(a2)
 2000ce8:	00168593          	addi	a1,a3,1
 2000cec:	00b52423          	sw	a1,8(a0)
 2000cf0:	00700613          	li	a2,7
 2000cf4:	00060513          	mv	a0,a2
 2000cf8:	00008067          	ret

02000cfc <_ZN98_$LT$risc0_zkvm_serde..serializer..Slice$u20$as$u20$risc0_zkvm_serde..serializer..StreamWriter$GT$7release17ha6c89193f9f5627eE>:
 2000cfc:	0045a683          	lw	a3,4(a1)
 2000d00:	0085a603          	lw	a2,8(a1)
 2000d04:	02c6e863          	bltu	a3,a2,2000d34 <_ZN98_$LT$risc0_zkvm_serde..serializer..Slice$u20$as$u20$risc0_zkvm_serde..serializer..StreamWriter$GT$7release17ha6c89193f9f5627eE+0x38>
 2000d08:	0005a703          	lw	a4,0(a1)
 2000d0c:	00261793          	slli	a5,a2,0x2
 2000d10:	00f707b3          	add	a5,a4,a5
 2000d14:	40c686b3          	sub	a3,a3,a2
 2000d18:	00f5a023          	sw	a5,0(a1)
 2000d1c:	00d5a223          	sw	a3,4(a1)
 2000d20:	0005a423          	sw	zero,8(a1)
 2000d24:	00e52223          	sw	a4,4(a0)
 2000d28:	00c52423          	sw	a2,8(a0)
 2000d2c:	00050023          	sb	zero,0(a0)
 2000d30:	00008067          	ret
 2000d34:	02003537          	lui	a0,0x2003
 2000d38:	fb950513          	addi	a0,a0,-71 # 2002fb9 <.Lanon.6eb67bcd4bda5f0b30bfb5494c16939d.0>
 2000d3c:	020035b7          	lui	a1,0x2003
 2000d40:	02058613          	addi	a2,a1,32 # 2003020 <.Lanon.6eb67bcd4bda5f0b30bfb5494c16939d.5>
 2000d44:	02300593          	li	a1,35
 2000d48:	00001097          	auipc	ra,0x1
 2000d4c:	718080e7          	jalr	1816(ra) # 2002460 <_ZN4core9panicking5panic17hf6ba736fe98a128dE>
 2000d50:	c0001073          	unimp

02000d54 <_ZN16risc0_zkvm_serde10serializer5Slice3new17h45d75a5678d9e327E>:
 2000d54:	00b52023          	sw	a1,0(a0)
 2000d58:	00c52223          	sw	a2,4(a0)
 2000d5c:	00052423          	sw	zero,8(a0)
 2000d60:	00008067          	ret

02000d64 <_ZN5alloc7raw_vec19RawVec$LT$T$C$A$GT$7reserve21do_reserve_and_handle17hc53483133ef45d25E>:
 2000d64:	fd010113          	addi	sp,sp,-48
 2000d68:	02112623          	sw	ra,44(sp)
 2000d6c:	02812423          	sw	s0,40(sp)
 2000d70:	02912223          	sw	s1,36(sp)
 2000d74:	00c58633          	add	a2,a1,a2
 2000d78:	08b66c63          	bltu	a2,a1,2000e10 <_ZN5alloc7raw_vec19RawVec$LT$T$C$A$GT$7reserve21do_reserve_and_handle17hc53483133ef45d25E+0xac>
 2000d7c:	00050413          	mv	s0,a0
 2000d80:	00452503          	lw	a0,4(a0)
 2000d84:	00151493          	slli	s1,a0,0x1
 2000d88:	02967263          	bgeu	a2,s1,2000dac <_ZN5alloc7raw_vec19RawVec$LT$T$C$A$GT$7reserve21do_reserve_and_handle17hc53483133ef45d25E+0x48>
 2000d8c:	00800593          	li	a1,8
 2000d90:	0295f463          	bgeu	a1,s1,2000db8 <_ZN5alloc7raw_vec19RawVec$LT$T$C$A$GT$7reserve21do_reserve_and_handle17hc53483133ef45d25E+0x54>
 2000d94:	02050663          	beqz	a0,2000dc0 <_ZN5alloc7raw_vec19RawVec$LT$T$C$A$GT$7reserve21do_reserve_and_handle17hc53483133ef45d25E+0x5c>
 2000d98:	00042583          	lw	a1,0(s0)
 2000d9c:	00b12c23          	sw	a1,24(sp)
 2000da0:	00a12e23          	sw	a0,28(sp)
 2000da4:	00100513          	li	a0,1
 2000da8:	01c0006f          	j	2000dc4 <_ZN5alloc7raw_vec19RawVec$LT$T$C$A$GT$7reserve21do_reserve_and_handle17hc53483133ef45d25E+0x60>
 2000dac:	00060493          	mv	s1,a2
 2000db0:	00800593          	li	a1,8
 2000db4:	fe95e0e3          	bltu	a1,s1,2000d94 <_ZN5alloc7raw_vec19RawVec$LT$T$C$A$GT$7reserve21do_reserve_and_handle17hc53483133ef45d25E+0x30>
 2000db8:	00800493          	li	s1,8
 2000dbc:	fc051ee3          	bnez	a0,2000d98 <_ZN5alloc7raw_vec19RawVec$LT$T$C$A$GT$7reserve21do_reserve_and_handle17hc53483133ef45d25E+0x34>
 2000dc0:	00000513          	li	a0,0
 2000dc4:	02a12023          	sw	a0,32(sp)
 2000dc8:	00810513          	addi	a0,sp,8
 2000dcc:	00100613          	li	a2,1
 2000dd0:	01810693          	addi	a3,sp,24
 2000dd4:	00048593          	mv	a1,s1
 2000dd8:	00000097          	auipc	ra,0x0
 2000ddc:	11c080e7          	jalr	284(ra) # 2000ef4 <_ZN5alloc7raw_vec11finish_grow17h80ca19aa09a7242dE.llvm.702291895030451100>
 2000de0:	00812503          	lw	a0,8(sp)
 2000de4:	02051263          	bnez	a0,2000e08 <_ZN5alloc7raw_vec19RawVec$LT$T$C$A$GT$7reserve21do_reserve_and_handle17hc53483133ef45d25E+0xa4>
 2000de8:	00c12503          	lw	a0,12(sp)
 2000dec:	00a42023          	sw	a0,0(s0)
 2000df0:	00942223          	sw	s1,4(s0)
 2000df4:	02c12083          	lw	ra,44(sp)
 2000df8:	02812403          	lw	s0,40(sp)
 2000dfc:	02412483          	lw	s1,36(sp)
 2000e00:	03010113          	addi	sp,sp,48
 2000e04:	00008067          	ret
 2000e08:	01012583          	lw	a1,16(sp)
 2000e0c:	00059863          	bnez	a1,2000e1c <_ZN5alloc7raw_vec19RawVec$LT$T$C$A$GT$7reserve21do_reserve_and_handle17hc53483133ef45d25E+0xb8>
 2000e10:	00000097          	auipc	ra,0x0
 2000e14:	1a4080e7          	jalr	420(ra) # 2000fb4 <_ZN5alloc7raw_vec17capacity_overflow17hef6c4291d27c2277E>
 2000e18:	c0001073          	unimp
 2000e1c:	00c12503          	lw	a0,12(sp)
 2000e20:	00000097          	auipc	ra,0x0
 2000e24:	1d8080e7          	jalr	472(ra) # 2000ff8 <_ZN5alloc5alloc18handle_alloc_error17h4be0c033a83846a6E>
 2000e28:	c0001073          	unimp

02000e2c <_ZN5alloc7raw_vec19RawVec$LT$T$C$A$GT$16reserve_for_push17he68328e17bf7773bE>:
 2000e2c:	fd010113          	addi	sp,sp,-48
 2000e30:	02112623          	sw	ra,44(sp)
 2000e34:	02812423          	sw	s0,40(sp)
 2000e38:	02912223          	sw	s1,36(sp)
 2000e3c:	00158613          	addi	a2,a1,1
 2000e40:	08b66c63          	bltu	a2,a1,2000ed8 <_ZN5alloc7raw_vec19RawVec$LT$T$C$A$GT$16reserve_for_push17he68328e17bf7773bE+0xac>
 2000e44:	00050413          	mv	s0,a0
 2000e48:	00452503          	lw	a0,4(a0)
 2000e4c:	00151493          	slli	s1,a0,0x1
 2000e50:	02967263          	bgeu	a2,s1,2000e74 <_ZN5alloc7raw_vec19RawVec$LT$T$C$A$GT$16reserve_for_push17he68328e17bf7773bE+0x48>
 2000e54:	00800593          	li	a1,8
 2000e58:	0295f463          	bgeu	a1,s1,2000e80 <_ZN5alloc7raw_vec19RawVec$LT$T$C$A$GT$16reserve_for_push17he68328e17bf7773bE+0x54>
 2000e5c:	02050663          	beqz	a0,2000e88 <_ZN5alloc7raw_vec19RawVec$LT$T$C$A$GT$16reserve_for_push17he68328e17bf7773bE+0x5c>
 2000e60:	00042583          	lw	a1,0(s0)
 2000e64:	00b12c23          	sw	a1,24(sp)
 2000e68:	00a12e23          	sw	a0,28(sp)
 2000e6c:	00100513          	li	a0,1
 2000e70:	01c0006f          	j	2000e8c <_ZN5alloc7raw_vec19RawVec$LT$T$C$A$GT$16reserve_for_push17he68328e17bf7773bE+0x60>
 2000e74:	00060493          	mv	s1,a2
 2000e78:	00800593          	li	a1,8
 2000e7c:	fe95e0e3          	bltu	a1,s1,2000e5c <_ZN5alloc7raw_vec19RawVec$LT$T$C$A$GT$16reserve_for_push17he68328e17bf7773bE+0x30>
 2000e80:	00800493          	li	s1,8
 2000e84:	fc051ee3          	bnez	a0,2000e60 <_ZN5alloc7raw_vec19RawVec$LT$T$C$A$GT$16reserve_for_push17he68328e17bf7773bE+0x34>
 2000e88:	00000513          	li	a0,0
 2000e8c:	02a12023          	sw	a0,32(sp)
 2000e90:	00810513          	addi	a0,sp,8
 2000e94:	00100613          	li	a2,1
 2000e98:	01810693          	addi	a3,sp,24
 2000e9c:	00048593          	mv	a1,s1
 2000ea0:	00000097          	auipc	ra,0x0
 2000ea4:	054080e7          	jalr	84(ra) # 2000ef4 <_ZN5alloc7raw_vec11finish_grow17h80ca19aa09a7242dE.llvm.702291895030451100>
 2000ea8:	00812503          	lw	a0,8(sp)
 2000eac:	02051263          	bnez	a0,2000ed0 <_ZN5alloc7raw_vec19RawVec$LT$T$C$A$GT$16reserve_for_push17he68328e17bf7773bE+0xa4>
 2000eb0:	00c12503          	lw	a0,12(sp)
 2000eb4:	00a42023          	sw	a0,0(s0)
 2000eb8:	00942223          	sw	s1,4(s0)
 2000ebc:	02c12083          	lw	ra,44(sp)
 2000ec0:	02812403          	lw	s0,40(sp)
 2000ec4:	02412483          	lw	s1,36(sp)
 2000ec8:	03010113          	addi	sp,sp,48
 2000ecc:	00008067          	ret
 2000ed0:	01012583          	lw	a1,16(sp)
 2000ed4:	00059863          	bnez	a1,2000ee4 <_ZN5alloc7raw_vec19RawVec$LT$T$C$A$GT$16reserve_for_push17he68328e17bf7773bE+0xb8>
 2000ed8:	00000097          	auipc	ra,0x0
 2000edc:	0dc080e7          	jalr	220(ra) # 2000fb4 <_ZN5alloc7raw_vec17capacity_overflow17hef6c4291d27c2277E>
 2000ee0:	c0001073          	unimp
 2000ee4:	00c12503          	lw	a0,12(sp)
 2000ee8:	00000097          	auipc	ra,0x0
 2000eec:	110080e7          	jalr	272(ra) # 2000ff8 <_ZN5alloc5alloc18handle_alloc_error17h4be0c033a83846a6E>
 2000ef0:	c0001073          	unimp

02000ef4 <_ZN5alloc7raw_vec11finish_grow17h80ca19aa09a7242dE.llvm.702291895030451100>:
 2000ef4:	fe010113          	addi	sp,sp,-32
 2000ef8:	00112e23          	sw	ra,28(sp)
 2000efc:	00812c23          	sw	s0,24(sp)
 2000f00:	00912a23          	sw	s1,20(sp)
 2000f04:	01212823          	sw	s2,16(sp)
 2000f08:	01312623          	sw	s3,12(sp)
 2000f0c:	00058493          	mv	s1,a1
 2000f10:	00050413          	mv	s0,a0
 2000f14:	02060e63          	beqz	a2,2000f50 <_ZN5alloc7raw_vec11finish_grow17h80ca19aa09a7242dE.llvm.702291895030451100+0x5c>
 2000f18:	00100993          	li	s3,1
 2000f1c:	0204ce63          	bltz	s1,2000f58 <_ZN5alloc7raw_vec11finish_grow17h80ca19aa09a7242dE.llvm.702291895030451100+0x64>
 2000f20:	00060913          	mv	s2,a2
 2000f24:	0086a503          	lw	a0,8(a3)
 2000f28:	02050c63          	beqz	a0,2000f60 <_ZN5alloc7raw_vec11finish_grow17h80ca19aa09a7242dE.llvm.702291895030451100+0x6c>
 2000f2c:	0046a583          	lw	a1,4(a3)
 2000f30:	02058863          	beqz	a1,2000f60 <_ZN5alloc7raw_vec11finish_grow17h80ca19aa09a7242dE.llvm.702291895030451100+0x6c>
 2000f34:	0006a503          	lw	a0,0(a3)
 2000f38:	00090613          	mv	a2,s2
 2000f3c:	00048693          	mv	a3,s1
 2000f40:	fffff097          	auipc	ra,0xfffff
 2000f44:	488080e7          	jalr	1160(ra) # 20003c8 <__rust_realloc>
 2000f48:	04051063          	bnez	a0,2000f88 <_ZN5alloc7raw_vec11finish_grow17h80ca19aa09a7242dE.llvm.702291895030451100+0x94>
 2000f4c:	02c0006f          	j	2000f78 <_ZN5alloc7raw_vec11finish_grow17h80ca19aa09a7242dE.llvm.702291895030451100+0x84>
 2000f50:	00942223          	sw	s1,4(s0)
 2000f54:	00100993          	li	s3,1
 2000f58:	00000493          	li	s1,0
 2000f5c:	0340006f          	j	2000f90 <_ZN5alloc7raw_vec11finish_grow17h80ca19aa09a7242dE.llvm.702291895030451100+0x9c>
 2000f60:	02048263          	beqz	s1,2000f84 <_ZN5alloc7raw_vec11finish_grow17h80ca19aa09a7242dE.llvm.702291895030451100+0x90>
 2000f64:	00048513          	mv	a0,s1
 2000f68:	00090593          	mv	a1,s2
 2000f6c:	fffff097          	auipc	ra,0xfffff
 2000f70:	454080e7          	jalr	1108(ra) # 20003c0 <__rust_alloc>
 2000f74:	00051a63          	bnez	a0,2000f88 <_ZN5alloc7raw_vec11finish_grow17h80ca19aa09a7242dE.llvm.702291895030451100+0x94>
 2000f78:	00942223          	sw	s1,4(s0)
 2000f7c:	00090493          	mv	s1,s2
 2000f80:	0100006f          	j	2000f90 <_ZN5alloc7raw_vec11finish_grow17h80ca19aa09a7242dE.llvm.702291895030451100+0x9c>
 2000f84:	00090513          	mv	a0,s2
 2000f88:	00000993          	li	s3,0
 2000f8c:	00a42223          	sw	a0,4(s0)
 2000f90:	00942423          	sw	s1,8(s0)
 2000f94:	01342023          	sw	s3,0(s0)
 2000f98:	01c12083          	lw	ra,28(sp)
 2000f9c:	01812403          	lw	s0,24(sp)
 2000fa0:	01412483          	lw	s1,20(sp)
 2000fa4:	01012903          	lw	s2,16(sp)
 2000fa8:	00c12983          	lw	s3,12(sp)
 2000fac:	02010113          	addi	sp,sp,32
 2000fb0:	00008067          	ret

02000fb4 <_ZN5alloc7raw_vec17capacity_overflow17hef6c4291d27c2277E>:
 2000fb4:	fe010113          	addi	sp,sp,-32
 2000fb8:	02003537          	lui	a0,0x2003
 2000fbc:	0fc50513          	addi	a0,a0,252 # 20030fc <anon.e6f9b7edf4a74adf74c0f4d9f616b85b.6.llvm.702291895030451100>
 2000fc0:	00a12423          	sw	a0,8(sp)
 2000fc4:	00100513          	li	a0,1
 2000fc8:	00a12623          	sw	a0,12(sp)
 2000fcc:	00012823          	sw	zero,16(sp)
 2000fd0:	02003537          	lui	a0,0x2003
 2000fd4:	03050513          	addi	a0,a0,48 # 2003030 <anon.e6f9b7edf4a74adf74c0f4d9f616b85b.1.llvm.702291895030451100>
 2000fd8:	00a12c23          	sw	a0,24(sp)
 2000fdc:	00012e23          	sw	zero,28(sp)
 2000fe0:	02003537          	lui	a0,0x2003
 2000fe4:	10450593          	addi	a1,a0,260 # 2003104 <anon.e6f9b7edf4a74adf74c0f4d9f616b85b.7.llvm.702291895030451100>
 2000fe8:	00810513          	addi	a0,sp,8
 2000fec:	00001097          	auipc	ra,0x1
 2000ff0:	51c080e7          	jalr	1308(ra) # 2002508 <_ZN4core9panicking9panic_fmt17h2f79f0b41003eeb7E>
 2000ff4:	c0001073          	unimp

02000ff8 <_ZN5alloc5alloc18handle_alloc_error17h4be0c033a83846a6E>:
 2000ff8:	00000097          	auipc	ra,0x0
 2000ffc:	024080e7          	jalr	36(ra) # 200101c <_ZN4core10intrinsics17const_eval_select17hd5fd56d06c3177bfE>
 2001000:	c0001073          	unimp

02001004 <_ZN5alloc5alloc18handle_alloc_error8rt_error17hadb69d417f246958E>:
 2001004:	fffff097          	auipc	ra,0xfffff
 2001008:	3cc080e7          	jalr	972(ra) # 20003d0 <__rust_alloc_error_handler>
 200100c:	c0001073          	unimp

02001010 <__rg_oom>:
 2001010:	00000097          	auipc	ra,0x0
 2001014:	894080e7          	jalr	-1900(ra) # 20008a4 <rust_oom>
 2001018:	c0001073          	unimp

0200101c <_ZN4core10intrinsics17const_eval_select17hd5fd56d06c3177bfE>:
 200101c:	00000097          	auipc	ra,0x0
 2001020:	00c080e7          	jalr	12(ra) # 2001028 <_ZN4core3ops8function6FnOnce9call_once17h532d5eb04069e1b8E.llvm.3865452614967009284>
 2001024:	c0001073          	unimp

02001028 <_ZN4core3ops8function6FnOnce9call_once17h532d5eb04069e1b8E.llvm.3865452614967009284>:
 2001028:	00000097          	auipc	ra,0x0
 200102c:	fdc080e7          	jalr	-36(ra) # 2001004 <_ZN5alloc5alloc18handle_alloc_error8rt_error17hadb69d417f246958E>
 2001030:	c0001073          	unimp

02001034 <_ZN4core3ptr37drop_in_place$LT$core..fmt..Error$GT$17hc5e98455538e0491E>:
 2001034:	00008067          	ret

02001038 <_ZN5alloc3fmt6format12format_inner17h3939dcfa53d8d639E>:
 2001038:	fd010113          	addi	sp,sp,-48
 200103c:	02112623          	sw	ra,44(sp)
 2001040:	02812423          	sw	s0,40(sp)
 2001044:	02912223          	sw	s1,36(sp)
 2001048:	03212023          	sw	s2,32(sp)
 200104c:	00058413          	mv	s0,a1
 2001050:	0045a603          	lw	a2,4(a1)
 2001054:	0005a583          	lw	a1,0(a1)
 2001058:	01442683          	lw	a3,20(s0)
 200105c:	00361713          	slli	a4,a2,0x3
 2001060:	00050493          	mv	s1,a0
 2001064:	00000513          	li	a0,0
 2001068:	00070e63          	beqz	a4,2001084 <_ZN5alloc3fmt6format12format_inner17h3939dcfa53d8d639E+0x4c>
 200106c:	00458793          	addi	a5,a1,4
 2001070:	0007a803          	lw	a6,0(a5)
 2001074:	00a80533          	add	a0,a6,a0
 2001078:	ff870713          	addi	a4,a4,-8
 200107c:	00878793          	addi	a5,a5,8
 2001080:	fe0718e3          	bnez	a4,2001070 <_ZN5alloc3fmt6format12format_inner17h3939dcfa53d8d639E+0x38>
 2001084:	04068a63          	beqz	a3,20010d8 <_ZN5alloc3fmt6format12format_inner17h3939dcfa53d8d639E+0xa0>
 2001088:	00060c63          	beqz	a2,20010a0 <_ZN5alloc3fmt6format12format_inner17h3939dcfa53d8d639E+0x68>
 200108c:	0045a583          	lw	a1,4(a1)
 2001090:	0015b593          	seqz	a1,a1
 2001094:	01053613          	sltiu	a2,a0,16
 2001098:	00c5f5b3          	and	a1,a1,a2
 200109c:	04059263          	bnez	a1,20010e0 <_ZN5alloc3fmt6format12format_inner17h3939dcfa53d8d639E+0xa8>
 20010a0:	00a50933          	add	s2,a0,a0
 20010a4:	02a96e63          	bltu	s2,a0,20010e0 <_ZN5alloc3fmt6format12format_inner17h3939dcfa53d8d639E+0xa8>
 20010a8:	02090c63          	beqz	s2,20010e0 <_ZN5alloc3fmt6format12format_inner17h3939dcfa53d8d639E+0xa8>
 20010ac:	0c094e63          	bltz	s2,2001188 <_ZN5alloc3fmt6format12format_inner17h3939dcfa53d8d639E+0x150>
 20010b0:	00100593          	li	a1,1
 20010b4:	00090513          	mv	a0,s2
 20010b8:	fffff097          	auipc	ra,0xfffff
 20010bc:	308080e7          	jalr	776(ra) # 20003c0 <__rust_alloc>
 20010c0:	02051463          	bnez	a0,20010e8 <_ZN5alloc3fmt6format12format_inner17h3939dcfa53d8d639E+0xb0>
 20010c4:	00100593          	li	a1,1
 20010c8:	00090513          	mv	a0,s2
 20010cc:	00000097          	auipc	ra,0x0
 20010d0:	f2c080e7          	jalr	-212(ra) # 2000ff8 <_ZN5alloc5alloc18handle_alloc_error17h4be0c033a83846a6E>
 20010d4:	c0001073          	unimp
 20010d8:	00050913          	mv	s2,a0
 20010dc:	fc0918e3          	bnez	s2,20010ac <_ZN5alloc3fmt6format12format_inner17h3939dcfa53d8d639E+0x74>
 20010e0:	00000913          	li	s2,0
 20010e4:	00100513          	li	a0,1
 20010e8:	00a4a023          	sw	a0,0(s1)
 20010ec:	0124a223          	sw	s2,4(s1)
 20010f0:	01442503          	lw	a0,20(s0)
 20010f4:	01042583          	lw	a1,16(s0)
 20010f8:	0004a423          	sw	zero,8(s1)
 20010fc:	00912223          	sw	s1,4(sp)
 2001100:	00a12e23          	sw	a0,28(sp)
 2001104:	00b12c23          	sw	a1,24(sp)
 2001108:	00c42503          	lw	a0,12(s0)
 200110c:	00842583          	lw	a1,8(s0)
 2001110:	00442603          	lw	a2,4(s0)
 2001114:	00042683          	lw	a3,0(s0)
 2001118:	00a12a23          	sw	a0,20(sp)
 200111c:	00b12823          	sw	a1,16(sp)
 2001120:	00c12623          	sw	a2,12(sp)
 2001124:	00d12423          	sw	a3,8(sp)
 2001128:	02003537          	lui	a0,0x2003
 200112c:	21c50593          	addi	a1,a0,540 # 200321c <anon.ca9571c3901ab8718e63aaa14e354a67.0.llvm.1327047209503677285>
 2001130:	00410513          	addi	a0,sp,4
 2001134:	00810613          	addi	a2,sp,8
 2001138:	00000097          	auipc	ra,0x0
 200113c:	478080e7          	jalr	1144(ra) # 20015b0 <_ZN4core3fmt5write17h794c1b4bc7ce1df0E>
 2001140:	00051e63          	bnez	a0,200115c <_ZN5alloc3fmt6format12format_inner17h3939dcfa53d8d639E+0x124>
 2001144:	02c12083          	lw	ra,44(sp)
 2001148:	02812403          	lw	s0,40(sp)
 200114c:	02412483          	lw	s1,36(sp)
 2001150:	02012903          	lw	s2,32(sp)
 2001154:	03010113          	addi	sp,sp,48
 2001158:	00008067          	ret
 200115c:	02003537          	lui	a0,0x2003
 2001160:	12450513          	addi	a0,a0,292 # 2003124 <.Lanon.8f792f70b1c60a6af53f1ad872701d5a.1>
 2001164:	020035b7          	lui	a1,0x2003
 2001168:	11458693          	addi	a3,a1,276 # 2003114 <.Lanon.8f792f70b1c60a6af53f1ad872701d5a.0>
 200116c:	020035b7          	lui	a1,0x2003
 2001170:	20c58713          	addi	a4,a1,524 # 200320c <.Lanon.8f792f70b1c60a6af53f1ad872701d5a.3>
 2001174:	03300593          	li	a1,51
 2001178:	00810613          	addi	a2,sp,8
 200117c:	00001097          	auipc	ra,0x1
 2001180:	53c080e7          	jalr	1340(ra) # 20026b8 <_ZN4core6result13unwrap_failed17h9f2f5272bd1199e5E>
 2001184:	c0001073          	unimp
 2001188:	00000097          	auipc	ra,0x0
 200118c:	e2c080e7          	jalr	-468(ra) # 2000fb4 <_ZN5alloc7raw_vec17capacity_overflow17hef6c4291d27c2277E>
 2001190:	c0001073          	unimp

02001194 <_ZN4core3ptr54drop_in_place$LT$$RF$mut$u20$alloc..string..String$GT$17h31b26b4ea0f94830E.llvm.1327047209503677285>:
 2001194:	00008067          	ret

02001198 <_ZN50_$LT$$RF$mut$u20$W$u20$as$u20$core..fmt..Write$GT$10write_char17hd18610bd59d45389E.llvm.1327047209503677285>:
 2001198:	fe010113          	addi	sp,sp,-32
 200119c:	00112e23          	sw	ra,28(sp)
 20011a0:	00812c23          	sw	s0,24(sp)
 20011a4:	00912a23          	sw	s1,20(sp)
 20011a8:	01212823          	sw	s2,16(sp)
 20011ac:	00052403          	lw	s0,0(a0)
 20011b0:	08000513          	li	a0,128
 20011b4:	00058493          	mv	s1,a1
 20011b8:	02a5fc63          	bgeu	a1,a0,20011f0 <_ZN50_$LT$$RF$mut$u20$W$u20$as$u20$core..fmt..Write$GT$10write_char17hd18610bd59d45389E.llvm.1327047209503677285+0x58>
 20011bc:	00842583          	lw	a1,8(s0)
 20011c0:	00442503          	lw	a0,4(s0)
 20011c4:	00a59a63          	bne	a1,a0,20011d8 <_ZN50_$LT$$RF$mut$u20$W$u20$as$u20$core..fmt..Write$GT$10write_char17hd18610bd59d45389E.llvm.1327047209503677285+0x40>
 20011c8:	00040513          	mv	a0,s0
 20011cc:	00000097          	auipc	ra,0x0
 20011d0:	c60080e7          	jalr	-928(ra) # 2000e2c <_ZN5alloc7raw_vec19RawVec$LT$T$C$A$GT$16reserve_for_push17he68328e17bf7773bE>
 20011d4:	00842583          	lw	a1,8(s0)
 20011d8:	00042503          	lw	a0,0(s0)
 20011dc:	00b50533          	add	a0,a0,a1
 20011e0:	00950023          	sb	s1,0(a0)
 20011e4:	00842503          	lw	a0,8(s0)
 20011e8:	00150513          	addi	a0,a0,1
 20011ec:	0d00006f          	j	20012bc <_ZN50_$LT$$RF$mut$u20$W$u20$as$u20$core..fmt..Write$GT$10write_char17hd18610bd59d45389E.llvm.1327047209503677285+0x124>
 20011f0:	00b4d513          	srli	a0,s1,0xb
 20011f4:	00012623          	sw	zero,12(sp)
 20011f8:	02051263          	bnez	a0,200121c <_ZN50_$LT$$RF$mut$u20$W$u20$as$u20$core..fmt..Write$GT$10write_char17hd18610bd59d45389E.llvm.1327047209503677285+0x84>
 20011fc:	0064d513          	srli	a0,s1,0x6
 2001200:	0c056513          	ori	a0,a0,192
 2001204:	00a10623          	sb	a0,12(sp)
 2001208:	03f4f513          	andi	a0,s1,63
 200120c:	08056513          	ori	a0,a0,128
 2001210:	00a106a3          	sb	a0,13(sp)
 2001214:	00200493          	li	s1,2
 2001218:	0780006f          	j	2001290 <_ZN50_$LT$$RF$mut$u20$W$u20$as$u20$core..fmt..Write$GT$10write_char17hd18610bd59d45389E.llvm.1327047209503677285+0xf8>
 200121c:	0104d513          	srli	a0,s1,0x10
 2001220:	02051a63          	bnez	a0,2001254 <_ZN50_$LT$$RF$mut$u20$W$u20$as$u20$core..fmt..Write$GT$10write_char17hd18610bd59d45389E.llvm.1327047209503677285+0xbc>
 2001224:	00c4d513          	srli	a0,s1,0xc
 2001228:	0e056513          	ori	a0,a0,224
 200122c:	00a10623          	sb	a0,12(sp)
 2001230:	0064d513          	srli	a0,s1,0x6
 2001234:	03f57513          	andi	a0,a0,63
 2001238:	08056513          	ori	a0,a0,128
 200123c:	00a106a3          	sb	a0,13(sp)
 2001240:	03f4f513          	andi	a0,s1,63
 2001244:	08056513          	ori	a0,a0,128
 2001248:	00a10723          	sb	a0,14(sp)
 200124c:	00300493          	li	s1,3
 2001250:	0400006f          	j	2001290 <_ZN50_$LT$$RF$mut$u20$W$u20$as$u20$core..fmt..Write$GT$10write_char17hd18610bd59d45389E.llvm.1327047209503677285+0xf8>
 2001254:	0124d513          	srli	a0,s1,0x12
 2001258:	0f056513          	ori	a0,a0,240
 200125c:	00a10623          	sb	a0,12(sp)
 2001260:	00c4d513          	srli	a0,s1,0xc
 2001264:	03f57513          	andi	a0,a0,63
 2001268:	08056513          	ori	a0,a0,128
 200126c:	00a106a3          	sb	a0,13(sp)
 2001270:	0064d513          	srli	a0,s1,0x6
 2001274:	03f57513          	andi	a0,a0,63
 2001278:	08056513          	ori	a0,a0,128
 200127c:	00a10723          	sb	a0,14(sp)
 2001280:	03f4f513          	andi	a0,s1,63
 2001284:	08056513          	ori	a0,a0,128
 2001288:	00a107a3          	sb	a0,15(sp)
 200128c:	00400493          	li	s1,4
 2001290:	00842903          	lw	s2,8(s0)
 2001294:	00442503          	lw	a0,4(s0)
 2001298:	41250533          	sub	a0,a0,s2
 200129c:	04956063          	bltu	a0,s1,20012dc <_ZN50_$LT$$RF$mut$u20$W$u20$as$u20$core..fmt..Write$GT$10write_char17hd18610bd59d45389E.llvm.1327047209503677285+0x144>
 20012a0:	00042503          	lw	a0,0(s0)
 20012a4:	01250533          	add	a0,a0,s2
 20012a8:	00c10593          	addi	a1,sp,12
 20012ac:	00048613          	mv	a2,s1
 20012b0:	00002097          	auipc	ra,0x2
 20012b4:	860080e7          	jalr	-1952(ra) # 2002b10 <memcpy>
 20012b8:	00990533          	add	a0,s2,s1
 20012bc:	00a42423          	sw	a0,8(s0)
 20012c0:	00000513          	li	a0,0
 20012c4:	01c12083          	lw	ra,28(sp)
 20012c8:	01812403          	lw	s0,24(sp)
 20012cc:	01412483          	lw	s1,20(sp)
 20012d0:	01012903          	lw	s2,16(sp)
 20012d4:	02010113          	addi	sp,sp,32
 20012d8:	00008067          	ret
 20012dc:	00040513          	mv	a0,s0
 20012e0:	00090593          	mv	a1,s2
 20012e4:	00048613          	mv	a2,s1
 20012e8:	00000097          	auipc	ra,0x0
 20012ec:	a7c080e7          	jalr	-1412(ra) # 2000d64 <_ZN5alloc7raw_vec19RawVec$LT$T$C$A$GT$7reserve21do_reserve_and_handle17hc53483133ef45d25E>
 20012f0:	00842903          	lw	s2,8(s0)
 20012f4:	fadff06f          	j	20012a0 <_ZN50_$LT$$RF$mut$u20$W$u20$as$u20$core..fmt..Write$GT$10write_char17hd18610bd59d45389E.llvm.1327047209503677285+0x108>

020012f8 <_ZN50_$LT$$RF$mut$u20$W$u20$as$u20$core..fmt..Write$GT$9write_fmt17h53fcc338d744b3e7E.llvm.1327047209503677285>:
 20012f8:	fd010113          	addi	sp,sp,-48
 20012fc:	02112623          	sw	ra,44(sp)
 2001300:	00052503          	lw	a0,0(a0)
 2001304:	0145a603          	lw	a2,20(a1)
 2001308:	0105a683          	lw	a3,16(a1)
 200130c:	00a12623          	sw	a0,12(sp)
 2001310:	02c12223          	sw	a2,36(sp)
 2001314:	02d12023          	sw	a3,32(sp)
 2001318:	00c5a503          	lw	a0,12(a1)
 200131c:	0085a603          	lw	a2,8(a1)
 2001320:	0045a683          	lw	a3,4(a1)
 2001324:	0005a583          	lw	a1,0(a1)
 2001328:	00a12e23          	sw	a0,28(sp)
 200132c:	00c12c23          	sw	a2,24(sp)
 2001330:	00d12a23          	sw	a3,20(sp)
 2001334:	00b12823          	sw	a1,16(sp)
 2001338:	02003537          	lui	a0,0x2003
 200133c:	21c50593          	addi	a1,a0,540 # 200321c <anon.ca9571c3901ab8718e63aaa14e354a67.0.llvm.1327047209503677285>
 2001340:	00c10513          	addi	a0,sp,12
 2001344:	01010613          	addi	a2,sp,16
 2001348:	00000097          	auipc	ra,0x0
 200134c:	268080e7          	jalr	616(ra) # 20015b0 <_ZN4core3fmt5write17h794c1b4bc7ce1df0E>
 2001350:	02c12083          	lw	ra,44(sp)
 2001354:	03010113          	addi	sp,sp,48
 2001358:	00008067          	ret

0200135c <_ZN50_$LT$$RF$mut$u20$W$u20$as$u20$core..fmt..Write$GT$9write_str17hc4e852f22e6973d3E.llvm.1327047209503677285>:
 200135c:	fe010113          	addi	sp,sp,-32
 2001360:	00112e23          	sw	ra,28(sp)
 2001364:	00812c23          	sw	s0,24(sp)
 2001368:	00912a23          	sw	s1,20(sp)
 200136c:	01212823          	sw	s2,16(sp)
 2001370:	01312623          	sw	s3,12(sp)
 2001374:	00052403          	lw	s0,0(a0)
 2001378:	00842903          	lw	s2,8(s0)
 200137c:	00442503          	lw	a0,4(s0)
 2001380:	41250533          	sub	a0,a0,s2
 2001384:	00060493          	mv	s1,a2
 2001388:	00058993          	mv	s3,a1
 200138c:	04c56263          	bltu	a0,a2,20013d0 <_ZN50_$LT$$RF$mut$u20$W$u20$as$u20$core..fmt..Write$GT$9write_str17hc4e852f22e6973d3E.llvm.1327047209503677285+0x74>
 2001390:	00042503          	lw	a0,0(s0)
 2001394:	01250533          	add	a0,a0,s2
 2001398:	00098593          	mv	a1,s3
 200139c:	00048613          	mv	a2,s1
 20013a0:	00001097          	auipc	ra,0x1
 20013a4:	770080e7          	jalr	1904(ra) # 2002b10 <memcpy>
 20013a8:	00990533          	add	a0,s2,s1
 20013ac:	00a42423          	sw	a0,8(s0)
 20013b0:	00000513          	li	a0,0
 20013b4:	01c12083          	lw	ra,28(sp)
 20013b8:	01812403          	lw	s0,24(sp)
 20013bc:	01412483          	lw	s1,20(sp)
 20013c0:	01012903          	lw	s2,16(sp)
 20013c4:	00c12983          	lw	s3,12(sp)
 20013c8:	02010113          	addi	sp,sp,32
 20013cc:	00008067          	ret
 20013d0:	00040513          	mv	a0,s0
 20013d4:	00090593          	mv	a1,s2
 20013d8:	00048613          	mv	a2,s1
 20013dc:	00000097          	auipc	ra,0x0
 20013e0:	988080e7          	jalr	-1656(ra) # 2000d64 <_ZN5alloc7raw_vec19RawVec$LT$T$C$A$GT$7reserve21do_reserve_and_handle17hc53483133ef45d25E>
 20013e4:	00842903          	lw	s2,8(s0)
 20013e8:	fa9ff06f          	j	2001390 <_ZN50_$LT$$RF$mut$u20$W$u20$as$u20$core..fmt..Write$GT$9write_str17hc4e852f22e6973d3E.llvm.1327047209503677285+0x34>

020013ec <_ZN4core3fmt3num53_$LT$impl$u20$core..fmt..LowerHex$u20$for$u20$i32$GT$3fmt17hc7cb3265f3c72f9dE>:
 20013ec:	f7010113          	addi	sp,sp,-144
 20013f0:	08112623          	sw	ra,140(sp)
 20013f4:	00058813          	mv	a6,a1
 20013f8:	00000593          	li	a1,0
 20013fc:	00052883          	lw	a7,0(a0)
 2001400:	00c10513          	addi	a0,sp,12
 2001404:	00a00613          	li	a2,10
 2001408:	00f00693          	li	a3,15
 200140c:	01c0006f          	j	2001428 <_ZN4core3fmt3num53_$LT$impl$u20$core..fmt..LowerHex$u20$for$u20$i32$GT$3fmt17hc7cb3265f3c72f9dE+0x3c>
 2001410:	00b50333          	add	t1,a0,a1
 2001414:	00475893          	srli	a7,a4,0x4
 2001418:	00f287b3          	add	a5,t0,a5
 200141c:	06f30fa3          	sb	a5,127(t1)
 2001420:	fff58593          	addi	a1,a1,-1
 2001424:	00e6fe63          	bgeu	a3,a4,2001440 <_ZN4core3fmt3num53_$LT$impl$u20$core..fmt..LowerHex$u20$for$u20$i32$GT$3fmt17hc7cb3265f3c72f9dE+0x54>
 2001428:	00088713          	mv	a4,a7
 200142c:	00f8f793          	andi	a5,a7,15
 2001430:	03000293          	li	t0,48
 2001434:	fcc7eee3          	bltu	a5,a2,2001410 <_ZN4core3fmt3num53_$LT$impl$u20$core..fmt..LowerHex$u20$for$u20$i32$GT$3fmt17hc7cb3265f3c72f9dE+0x24>
 2001438:	05700293          	li	t0,87
 200143c:	fd5ff06f          	j	2001410 <_ZN4core3fmt3num53_$LT$impl$u20$core..fmt..LowerHex$u20$for$u20$i32$GT$3fmt17hc7cb3265f3c72f9dE+0x24>
 2001440:	08058513          	addi	a0,a1,128
 2001444:	08100613          	li	a2,129
 2001448:	02c57e63          	bgeu	a0,a2,2001484 <_ZN4core3fmt3num53_$LT$impl$u20$core..fmt..LowerHex$u20$for$u20$i32$GT$3fmt17hc7cb3265f3c72f9dE+0x98>
 200144c:	40b007b3          	neg	a5,a1
 2001450:	00c10513          	addi	a0,sp,12
 2001454:	00b50533          	add	a0,a0,a1
 2001458:	08050713          	addi	a4,a0,128
 200145c:	02003537          	lui	a0,0x2003
 2001460:	2fc50613          	addi	a2,a0,764 # 20032fc <anon.c51e510c33fdcff7e0fba59f411f82da.4.llvm.5083173684601433623>
 2001464:	00100593          	li	a1,1
 2001468:	00200693          	li	a3,2
 200146c:	00080513          	mv	a0,a6
 2001470:	00000097          	auipc	ra,0x0
 2001474:	3b0080e7          	jalr	944(ra) # 2001820 <_ZN4core3fmt9Formatter12pad_integral17h49daac362a1afbe9E>
 2001478:	08c12083          	lw	ra,140(sp)
 200147c:	09010113          	addi	sp,sp,144
 2001480:	00008067          	ret
 2001484:	020035b7          	lui	a1,0x2003
 2001488:	2ec58613          	addi	a2,a1,748 # 20032ec <anon.c51e510c33fdcff7e0fba59f411f82da.1.llvm.5083173684601433623>
 200148c:	08000593          	li	a1,128
 2001490:	00001097          	auipc	ra,0x1
 2001494:	524080e7          	jalr	1316(ra) # 20029b4 <_ZN4core5slice5index26slice_start_index_len_fail17h788b329c729665e0E>
 2001498:	c0001073          	unimp

0200149c <_ZN4core3fmt3num53_$LT$impl$u20$core..fmt..UpperHex$u20$for$u20$i32$GT$3fmt17h7add5f86a613e1f9E>:
 200149c:	f7010113          	addi	sp,sp,-144
 20014a0:	08112623          	sw	ra,140(sp)
 20014a4:	00058813          	mv	a6,a1
 20014a8:	00000593          	li	a1,0
 20014ac:	00052883          	lw	a7,0(a0)
 20014b0:	00c10513          	addi	a0,sp,12
 20014b4:	00a00613          	li	a2,10
 20014b8:	00f00693          	li	a3,15
 20014bc:	01c0006f          	j	20014d8 <_ZN4core3fmt3num53_$LT$impl$u20$core..fmt..UpperHex$u20$for$u20$i32$GT$3fmt17h7add5f86a613e1f9E+0x3c>
 20014c0:	00b50333          	add	t1,a0,a1
 20014c4:	00475893          	srli	a7,a4,0x4
 20014c8:	00f287b3          	add	a5,t0,a5
 20014cc:	06f30fa3          	sb	a5,127(t1)
 20014d0:	fff58593          	addi	a1,a1,-1
 20014d4:	00e6fe63          	bgeu	a3,a4,20014f0 <_ZN4core3fmt3num53_$LT$impl$u20$core..fmt..UpperHex$u20$for$u20$i32$GT$3fmt17h7add5f86a613e1f9E+0x54>
 20014d8:	00088713          	mv	a4,a7
 20014dc:	00f8f793          	andi	a5,a7,15
 20014e0:	03000293          	li	t0,48
 20014e4:	fcc7eee3          	bltu	a5,a2,20014c0 <_ZN4core3fmt3num53_$LT$impl$u20$core..fmt..UpperHex$u20$for$u20$i32$GT$3fmt17h7add5f86a613e1f9E+0x24>
 20014e8:	03700293          	li	t0,55
 20014ec:	fd5ff06f          	j	20014c0 <_ZN4core3fmt3num53_$LT$impl$u20$core..fmt..UpperHex$u20$for$u20$i32$GT$3fmt17h7add5f86a613e1f9E+0x24>
 20014f0:	08058513          	addi	a0,a1,128
 20014f4:	08100613          	li	a2,129
 20014f8:	02c57e63          	bgeu	a0,a2,2001534 <_ZN4core3fmt3num53_$LT$impl$u20$core..fmt..UpperHex$u20$for$u20$i32$GT$3fmt17h7add5f86a613e1f9E+0x98>
 20014fc:	40b007b3          	neg	a5,a1
 2001500:	00c10513          	addi	a0,sp,12
 2001504:	00b50533          	add	a0,a0,a1
 2001508:	08050713          	addi	a4,a0,128
 200150c:	02003537          	lui	a0,0x2003
 2001510:	2fc50613          	addi	a2,a0,764 # 20032fc <anon.c51e510c33fdcff7e0fba59f411f82da.4.llvm.5083173684601433623>
 2001514:	00100593          	li	a1,1
 2001518:	00200693          	li	a3,2
 200151c:	00080513          	mv	a0,a6
 2001520:	00000097          	auipc	ra,0x0
 2001524:	300080e7          	jalr	768(ra) # 2001820 <_ZN4core3fmt9Formatter12pad_integral17h49daac362a1afbe9E>
 2001528:	08c12083          	lw	ra,140(sp)
 200152c:	09010113          	addi	sp,sp,144
 2001530:	00008067          	ret
 2001534:	020035b7          	lui	a1,0x2003
 2001538:	2ec58613          	addi	a2,a1,748 # 20032ec <anon.c51e510c33fdcff7e0fba59f411f82da.1.llvm.5083173684601433623>
 200153c:	08000593          	li	a1,128
 2001540:	00001097          	auipc	ra,0x1
 2001544:	474080e7          	jalr	1140(ra) # 20029b4 <_ZN4core5slice5index26slice_start_index_len_fail17h788b329c729665e0E>
 2001548:	c0001073          	unimp

0200154c <_ZN4core3ops8function6FnOnce9call_once17hfbc00745ba292032E.llvm.17860744969397078504>:
 200154c:	00052503          	lw	a0,0(a0)
 2001550:	0000006f          	j	2001550 <_ZN4core3ops8function6FnOnce9call_once17hfbc00745ba292032E.llvm.17860744969397078504+0x4>

02001554 <_ZN59_$LT$core..fmt..Arguments$u20$as$u20$core..fmt..Display$GT$3fmt17h5bbcc4a8f74ef85bE>:
 2001554:	fe010113          	addi	sp,sp,-32
 2001558:	00112e23          	sw	ra,28(sp)
 200155c:	01452603          	lw	a2,20(a0)
 2001560:	01052703          	lw	a4,16(a0)
 2001564:	00c52783          	lw	a5,12(a0)
 2001568:	00c12a23          	sw	a2,20(sp)
 200156c:	0185a683          	lw	a3,24(a1)
 2001570:	00e12823          	sw	a4,16(sp)
 2001574:	00f12623          	sw	a5,12(sp)
 2001578:	00852603          	lw	a2,8(a0)
 200157c:	00452703          	lw	a4,4(a0)
 2001580:	00052503          	lw	a0,0(a0)
 2001584:	01c5a583          	lw	a1,28(a1)
 2001588:	00c12423          	sw	a2,8(sp)
 200158c:	00e12223          	sw	a4,4(sp)
 2001590:	00a12023          	sw	a0,0(sp)
 2001594:	00010613          	mv	a2,sp
 2001598:	00068513          	mv	a0,a3
 200159c:	00000097          	auipc	ra,0x0
 20015a0:	014080e7          	jalr	20(ra) # 20015b0 <_ZN4core3fmt5write17h794c1b4bc7ce1df0E>
 20015a4:	01c12083          	lw	ra,28(sp)
 20015a8:	02010113          	addi	sp,sp,32
 20015ac:	00008067          	ret

020015b0 <_ZN4core3fmt5write17h794c1b4bc7ce1df0E>:
 20015b0:	fb010113          	addi	sp,sp,-80
 20015b4:	04112623          	sw	ra,76(sp)
 20015b8:	04812423          	sw	s0,72(sp)
 20015bc:	04912223          	sw	s1,68(sp)
 20015c0:	05212023          	sw	s2,64(sp)
 20015c4:	03312e23          	sw	s3,60(sp)
 20015c8:	03412c23          	sw	s4,56(sp)
 20015cc:	03512a23          	sw	s5,52(sp)
 20015d0:	03612823          	sw	s6,48(sp)
 20015d4:	00060413          	mv	s0,a2
 20015d8:	00012423          	sw	zero,8(sp)
 20015dc:	02000613          	li	a2,32
 20015e0:	00c12623          	sw	a2,12(sp)
 20015e4:	00300613          	li	a2,3
 20015e8:	02c10423          	sb	a2,40(sp)
 20015ec:	00842603          	lw	a2,8(s0)
 20015f0:	00012823          	sw	zero,16(sp)
 20015f4:	00012c23          	sw	zero,24(sp)
 20015f8:	02a12023          	sw	a0,32(sp)
 20015fc:	02b12223          	sw	a1,36(sp)
 2001600:	12060463          	beqz	a2,2001728 <_ZN4core3fmt5write17h794c1b4bc7ce1df0E+0x178>
 2001604:	00c42503          	lw	a0,12(s0)
 2001608:	00551913          	slli	s2,a0,0x5
 200160c:	18090863          	beqz	s2,200179c <_ZN4core3fmt5write17h794c1b4bc7ce1df0E+0x1ec>
 2001610:	00042583          	lw	a1,0(s0)
 2001614:	fff50513          	addi	a0,a0,-1
 2001618:	00551513          	slli	a0,a0,0x5
 200161c:	00555513          	srli	a0,a0,0x5
 2001620:	00150493          	addi	s1,a0,1
 2001624:	00458993          	addi	s3,a1,4
 2001628:	01060a13          	addi	s4,a2,16
 200162c:	00100a93          	li	s5,1
 2001630:	02001537          	lui	a0,0x2001
 2001634:	54c50b13          	addi	s6,a0,1356 # 200154c <_ZN4core3ops8function6FnOnce9call_once17hfbc00745ba292032E.llvm.17860744969397078504>
 2001638:	0009a603          	lw	a2,0(s3) # 3f00000 <anon.21be27dcbcfea609e6fb5c090ac782fb.31.llvm.13982520288002575779+0x1efc998>
 200163c:	00060e63          	beqz	a2,2001658 <_ZN4core3fmt5write17h794c1b4bc7ce1df0E+0xa8>
 2001640:	02412683          	lw	a3,36(sp)
 2001644:	02012503          	lw	a0,32(sp)
 2001648:	ffc9a583          	lw	a1,-4(s3)
 200164c:	00c6a683          	lw	a3,12(a3)
 2001650:	000680e7          	jalr	a3
 2001654:	18051c63          	bnez	a0,20017ec <_ZN4core3fmt5write17h794c1b4bc7ce1df0E+0x23c>
 2001658:	ff4a2503          	lw	a0,-12(s4)
 200165c:	00a12623          	sw	a0,12(sp)
 2001660:	00ca0503          	lb	a0,12(s4)
 2001664:	02a10423          	sb	a0,40(sp)
 2001668:	ff8a2583          	lw	a1,-8(s4)
 200166c:	01042503          	lw	a0,16(s0)
 2001670:	00b12423          	sw	a1,8(sp)
 2001674:	004a2683          	lw	a3,4(s4)
 2001678:	008a2583          	lw	a1,8(s4)
 200167c:	02068663          	beqz	a3,20016a8 <_ZN4core3fmt5write17h794c1b4bc7ce1df0E+0xf8>
 2001680:	00000613          	li	a2,0
 2001684:	03569463          	bne	a3,s5,20016ac <_ZN4core3fmt5write17h794c1b4bc7ce1df0E+0xfc>
 2001688:	00359593          	slli	a1,a1,0x3
 200168c:	00b505b3          	add	a1,a0,a1
 2001690:	0045a603          	lw	a2,4(a1)
 2001694:	01660663          	beq	a2,s6,20016a0 <_ZN4core3fmt5write17h794c1b4bc7ce1df0E+0xf0>
 2001698:	00000613          	li	a2,0
 200169c:	0100006f          	j	20016ac <_ZN4core3fmt5write17h794c1b4bc7ce1df0E+0xfc>
 20016a0:	0005a583          	lw	a1,0(a1)
 20016a4:	0005a583          	lw	a1,0(a1)
 20016a8:	00100613          	li	a2,1
 20016ac:	00c12823          	sw	a2,16(sp)
 20016b0:	00b12a23          	sw	a1,20(sp)
 20016b4:	ffca2683          	lw	a3,-4(s4)
 20016b8:	000a2583          	lw	a1,0(s4)
 20016bc:	02068663          	beqz	a3,20016e8 <_ZN4core3fmt5write17h794c1b4bc7ce1df0E+0x138>
 20016c0:	00000613          	li	a2,0
 20016c4:	03569463          	bne	a3,s5,20016ec <_ZN4core3fmt5write17h794c1b4bc7ce1df0E+0x13c>
 20016c8:	00359593          	slli	a1,a1,0x3
 20016cc:	00b505b3          	add	a1,a0,a1
 20016d0:	0045a603          	lw	a2,4(a1)
 20016d4:	01660663          	beq	a2,s6,20016e0 <_ZN4core3fmt5write17h794c1b4bc7ce1df0E+0x130>
 20016d8:	00000613          	li	a2,0
 20016dc:	0100006f          	j	20016ec <_ZN4core3fmt5write17h794c1b4bc7ce1df0E+0x13c>
 20016e0:	0005a583          	lw	a1,0(a1)
 20016e4:	0005a583          	lw	a1,0(a1)
 20016e8:	00100613          	li	a2,1
 20016ec:	00c12c23          	sw	a2,24(sp)
 20016f0:	00b12e23          	sw	a1,28(sp)
 20016f4:	ff0a2583          	lw	a1,-16(s4)
 20016f8:	00359593          	slli	a1,a1,0x3
 20016fc:	00b50533          	add	a0,a0,a1
 2001700:	00452603          	lw	a2,4(a0)
 2001704:	00052503          	lw	a0,0(a0)
 2001708:	00810593          	addi	a1,sp,8
 200170c:	000600e7          	jalr	a2
 2001710:	0c051e63          	bnez	a0,20017ec <_ZN4core3fmt5write17h794c1b4bc7ce1df0E+0x23c>
 2001714:	00898993          	addi	s3,s3,8
 2001718:	fe090913          	addi	s2,s2,-32
 200171c:	020a0a13          	addi	s4,s4,32
 2001720:	f0091ce3          	bnez	s2,2001638 <_ZN4core3fmt5write17h794c1b4bc7ce1df0E+0x88>
 2001724:	07c0006f          	j	20017a0 <_ZN4core3fmt5write17h794c1b4bc7ce1df0E+0x1f0>
 2001728:	01442503          	lw	a0,20(s0)
 200172c:	08050463          	beqz	a0,20017b4 <_ZN4core3fmt5write17h794c1b4bc7ce1df0E+0x204>
 2001730:	01042583          	lw	a1,16(s0)
 2001734:	00042603          	lw	a2,0(s0)
 2001738:	fff50693          	addi	a3,a0,-1
 200173c:	00369693          	slli	a3,a3,0x3
 2001740:	0036d693          	srli	a3,a3,0x3
 2001744:	00168493          	addi	s1,a3,1
 2001748:	00460913          	addi	s2,a2,4
 200174c:	00458993          	addi	s3,a1,4
 2001750:	00351a13          	slli	s4,a0,0x3
 2001754:	00092603          	lw	a2,0(s2)
 2001758:	00060e63          	beqz	a2,2001774 <_ZN4core3fmt5write17h794c1b4bc7ce1df0E+0x1c4>
 200175c:	02412683          	lw	a3,36(sp)
 2001760:	02012503          	lw	a0,32(sp)
 2001764:	ffc92583          	lw	a1,-4(s2)
 2001768:	00c6a683          	lw	a3,12(a3)
 200176c:	000680e7          	jalr	a3
 2001770:	06051e63          	bnez	a0,20017ec <_ZN4core3fmt5write17h794c1b4bc7ce1df0E+0x23c>
 2001774:	0009a603          	lw	a2,0(s3)
 2001778:	ffc9a503          	lw	a0,-4(s3)
 200177c:	00810593          	addi	a1,sp,8
 2001780:	000600e7          	jalr	a2
 2001784:	06051463          	bnez	a0,20017ec <_ZN4core3fmt5write17h794c1b4bc7ce1df0E+0x23c>
 2001788:	00890913          	addi	s2,s2,8
 200178c:	ff8a0a13          	addi	s4,s4,-8
 2001790:	00898993          	addi	s3,s3,8
 2001794:	fc0a10e3          	bnez	s4,2001754 <_ZN4core3fmt5write17h794c1b4bc7ce1df0E+0x1a4>
 2001798:	0080006f          	j	20017a0 <_ZN4core3fmt5write17h794c1b4bc7ce1df0E+0x1f0>
 200179c:	00000493          	li	s1,0
 20017a0:	00442503          	lw	a0,4(s0)
 20017a4:	00a4ee63          	bltu	s1,a0,20017c0 <_ZN4core3fmt5write17h794c1b4bc7ce1df0E+0x210>
 20017a8:	00000613          	li	a2,0
 20017ac:	02a4e263          	bltu	s1,a0,20017d0 <_ZN4core3fmt5write17h794c1b4bc7ce1df0E+0x220>
 20017b0:	0440006f          	j	20017f4 <_ZN4core3fmt5write17h794c1b4bc7ce1df0E+0x244>
 20017b4:	00000493          	li	s1,0
 20017b8:	00442503          	lw	a0,4(s0)
 20017bc:	fea4f6e3          	bgeu	s1,a0,20017a8 <_ZN4core3fmt5write17h794c1b4bc7ce1df0E+0x1f8>
 20017c0:	00042583          	lw	a1,0(s0)
 20017c4:	00349613          	slli	a2,s1,0x3
 20017c8:	00c58633          	add	a2,a1,a2
 20017cc:	02a4f463          	bgeu	s1,a0,20017f4 <_ZN4core3fmt5write17h794c1b4bc7ce1df0E+0x244>
 20017d0:	02412683          	lw	a3,36(sp)
 20017d4:	02012503          	lw	a0,32(sp)
 20017d8:	00062583          	lw	a1,0(a2)
 20017dc:	00462603          	lw	a2,4(a2)
 20017e0:	00c6a683          	lw	a3,12(a3)
 20017e4:	000680e7          	jalr	a3
 20017e8:	00050663          	beqz	a0,20017f4 <_ZN4core3fmt5write17h794c1b4bc7ce1df0E+0x244>
 20017ec:	00100513          	li	a0,1
 20017f0:	0080006f          	j	20017f8 <_ZN4core3fmt5write17h794c1b4bc7ce1df0E+0x248>
 20017f4:	00000513          	li	a0,0
 20017f8:	04c12083          	lw	ra,76(sp)
 20017fc:	04812403          	lw	s0,72(sp)
 2001800:	04412483          	lw	s1,68(sp)
 2001804:	04012903          	lw	s2,64(sp)
 2001808:	03c12983          	lw	s3,60(sp)
 200180c:	03812a03          	lw	s4,56(sp)
 2001810:	03412a83          	lw	s5,52(sp)
 2001814:	03012b03          	lw	s6,48(sp)
 2001818:	05010113          	addi	sp,sp,80
 200181c:	00008067          	ret

02001820 <_ZN4core3fmt9Formatter12pad_integral17h49daac362a1afbe9E>:
 2001820:	fd010113          	addi	sp,sp,-48
 2001824:	02112623          	sw	ra,44(sp)
 2001828:	02812423          	sw	s0,40(sp)
 200182c:	02912223          	sw	s1,36(sp)
 2001830:	03212023          	sw	s2,32(sp)
 2001834:	01312e23          	sw	s3,28(sp)
 2001838:	01412c23          	sw	s4,24(sp)
 200183c:	01512a23          	sw	s5,20(sp)
 2001840:	01612823          	sw	s6,16(sp)
 2001844:	01712623          	sw	s7,12(sp)
 2001848:	01812423          	sw	s8,8(sp)
 200184c:	01912223          	sw	s9,4(sp)
 2001850:	01a12023          	sw	s10,0(sp)
 2001854:	00078493          	mv	s1,a5
 2001858:	00070913          	mv	s2,a4
 200185c:	00068993          	mv	s3,a3
 2001860:	00060a93          	mv	s5,a2
 2001864:	00050413          	mv	s0,a0
 2001868:	06058663          	beqz	a1,20018d4 <_ZN4core3fmt9Formatter12pad_integral17h49daac362a1afbe9E+0xb4>
 200186c:	00042503          	lw	a0,0(s0)
 2001870:	00157593          	andi	a1,a0,1
 2001874:	00110a37          	lui	s4,0x110
 2001878:	00058463          	beqz	a1,2001880 <_ZN4core3fmt9Formatter12pad_integral17h49daac362a1afbe9E+0x60>
 200187c:	02b00a13          	li	s4,43
 2001880:	00958bb3          	add	s7,a1,s1
 2001884:	00457513          	andi	a0,a0,4
 2001888:	06050063          	beqz	a0,20018e8 <_ZN4core3fmt9Formatter12pad_integral17h49daac362a1afbe9E+0xc8>
 200188c:	01000513          	li	a0,16
 2001890:	06a9f463          	bgeu	s3,a0,20018f8 <_ZN4core3fmt9Formatter12pad_integral17h49daac362a1afbe9E+0xd8>
 2001894:	00000513          	li	a0,0
 2001898:	02098463          	beqz	s3,20018c0 <_ZN4core3fmt9Formatter12pad_integral17h49daac362a1afbe9E+0xa0>
 200189c:	fbf00593          	li	a1,-65
 20018a0:	00098613          	mv	a2,s3
 20018a4:	000a8693          	mv	a3,s5
 20018a8:	00068703          	lb	a4,0(a3)
 20018ac:	00168693          	addi	a3,a3,1
 20018b0:	00e5a733          	slt	a4,a1,a4
 20018b4:	fff60613          	addi	a2,a2,-1
 20018b8:	00e50533          	add	a0,a0,a4
 20018bc:	fe0616e3          	bnez	a2,20018a8 <_ZN4core3fmt9Formatter12pad_integral17h49daac362a1afbe9E+0x88>
 20018c0:	01750bb3          	add	s7,a0,s7
 20018c4:	000a8b13          	mv	s6,s5
 20018c8:	00842503          	lw	a0,8(s0)
 20018cc:	04051663          	bnez	a0,2001918 <_ZN4core3fmt9Formatter12pad_integral17h49daac362a1afbe9E+0xf8>
 20018d0:	08c0006f          	j	200195c <_ZN4core3fmt9Formatter12pad_integral17h49daac362a1afbe9E+0x13c>
 20018d4:	00042503          	lw	a0,0(s0)
 20018d8:	00148b93          	addi	s7,s1,1
 20018dc:	02d00a13          	li	s4,45
 20018e0:	00457513          	andi	a0,a0,4
 20018e4:	fa0514e3          	bnez	a0,200188c <_ZN4core3fmt9Formatter12pad_integral17h49daac362a1afbe9E+0x6c>
 20018e8:	00000b13          	li	s6,0
 20018ec:	00842503          	lw	a0,8(s0)
 20018f0:	02051463          	bnez	a0,2001918 <_ZN4core3fmt9Formatter12pad_integral17h49daac362a1afbe9E+0xf8>
 20018f4:	0680006f          	j	200195c <_ZN4core3fmt9Formatter12pad_integral17h49daac362a1afbe9E+0x13c>
 20018f8:	000a8513          	mv	a0,s5
 20018fc:	00098593          	mv	a1,s3
 2001900:	00001097          	auipc	ra,0x1
 2001904:	ea0080e7          	jalr	-352(ra) # 20027a0 <_ZN4core3str5count14do_count_chars17h8194609739272a4dE>
 2001908:	01750bb3          	add	s7,a0,s7
 200190c:	000a8b13          	mv	s6,s5
 2001910:	00842503          	lw	a0,8(s0)
 2001914:	04050463          	beqz	a0,200195c <_ZN4core3fmt9Formatter12pad_integral17h49daac362a1afbe9E+0x13c>
 2001918:	00c42d03          	lw	s10,12(s0)
 200191c:	05abf063          	bgeu	s7,s10,200195c <_ZN4core3fmt9Formatter12pad_integral17h49daac362a1afbe9E+0x13c>
 2001920:	00044503          	lbu	a0,0(s0)
 2001924:	00857513          	andi	a0,a0,8
 2001928:	0a051063          	bnez	a0,20019c8 <_ZN4core3fmt9Formatter12pad_integral17h49daac362a1afbe9E+0x1a8>
 200192c:	02044583          	lbu	a1,32(s0)
 2001930:	00300613          	li	a2,3
 2001934:	00100513          	li	a0,1
 2001938:	00c58463          	beq	a1,a2,2001940 <_ZN4core3fmt9Formatter12pad_integral17h49daac362a1afbe9E+0x120>
 200193c:	00058513          	mv	a0,a1
 2001940:	00357593          	andi	a1,a0,3
 2001944:	417d0533          	sub	a0,s10,s7
 2001948:	0e058263          	beqz	a1,2001a2c <_ZN4core3fmt9Formatter12pad_integral17h49daac362a1afbe9E+0x20c>
 200194c:	00100613          	li	a2,1
 2001950:	0ec59463          	bne	a1,a2,2001a38 <_ZN4core3fmt9Formatter12pad_integral17h49daac362a1afbe9E+0x218>
 2001954:	00000c13          	li	s8,0
 2001958:	0ec0006f          	j	2001a44 <_ZN4core3fmt9Formatter12pad_integral17h49daac362a1afbe9E+0x224>
 200195c:	00040513          	mv	a0,s0
 2001960:	000a0593          	mv	a1,s4
 2001964:	000b0613          	mv	a2,s6
 2001968:	00098693          	mv	a3,s3
 200196c:	00000097          	auipc	ra,0x0
 2001970:	274080e7          	jalr	628(ra) # 2001be0 <_ZN4core3fmt9Formatter12pad_integral12write_prefix17he7a93227e99e5e4bE>
 2001974:	00100a93          	li	s5,1
 2001978:	1a051c63          	bnez	a0,2001b30 <_ZN4core3fmt9Formatter12pad_integral17h49daac362a1afbe9E+0x310>
 200197c:	01c42583          	lw	a1,28(s0)
 2001980:	01842503          	lw	a0,24(s0)
 2001984:	00c5a303          	lw	t1,12(a1)
 2001988:	00090593          	mv	a1,s2
 200198c:	00048613          	mv	a2,s1
 2001990:	02c12083          	lw	ra,44(sp)
 2001994:	02812403          	lw	s0,40(sp)
 2001998:	02412483          	lw	s1,36(sp)
 200199c:	02012903          	lw	s2,32(sp)
 20019a0:	01c12983          	lw	s3,28(sp)
 20019a4:	01812a03          	lw	s4,24(sp)
 20019a8:	01412a83          	lw	s5,20(sp)
 20019ac:	01012b03          	lw	s6,16(sp)
 20019b0:	00c12b83          	lw	s7,12(sp)
 20019b4:	00812c03          	lw	s8,8(sp)
 20019b8:	00412c83          	lw	s9,4(sp)
 20019bc:	00012d03          	lw	s10,0(sp)
 20019c0:	03010113          	addi	sp,sp,48
 20019c4:	00030067          	jr	t1
 20019c8:	00442c03          	lw	s8,4(s0)
 20019cc:	03000513          	li	a0,48
 20019d0:	02044c83          	lbu	s9,32(s0)
 20019d4:	00a42223          	sw	a0,4(s0)
 20019d8:	00100a93          	li	s5,1
 20019dc:	03540023          	sb	s5,32(s0)
 20019e0:	00040513          	mv	a0,s0
 20019e4:	000a0593          	mv	a1,s4
 20019e8:	000b0613          	mv	a2,s6
 20019ec:	00098693          	mv	a3,s3
 20019f0:	00000097          	auipc	ra,0x0
 20019f4:	1f0080e7          	jalr	496(ra) # 2001be0 <_ZN4core3fmt9Formatter12pad_integral12write_prefix17he7a93227e99e5e4bE>
 20019f8:	12051c63          	bnez	a0,2001b30 <_ZN4core3fmt9Formatter12pad_integral17h49daac362a1afbe9E+0x310>
 20019fc:	02044583          	lbu	a1,32(s0)
 2001a00:	00300613          	li	a2,3
 2001a04:	00100513          	li	a0,1
 2001a08:	00c58463          	beq	a1,a2,2001a10 <_ZN4core3fmt9Formatter12pad_integral17h49daac362a1afbe9E+0x1f0>
 2001a0c:	00058513          	mv	a0,a1
 2001a10:	00357593          	andi	a1,a0,3
 2001a14:	417d0533          	sub	a0,s10,s7
 2001a18:	0c058863          	beqz	a1,2001ae8 <_ZN4core3fmt9Formatter12pad_integral17h49daac362a1afbe9E+0x2c8>
 2001a1c:	00100613          	li	a2,1
 2001a20:	0cc59a63          	bne	a1,a2,2001af4 <_ZN4core3fmt9Formatter12pad_integral17h49daac362a1afbe9E+0x2d4>
 2001a24:	00000b13          	li	s6,0
 2001a28:	0d80006f          	j	2001b00 <_ZN4core3fmt9Formatter12pad_integral17h49daac362a1afbe9E+0x2e0>
 2001a2c:	00050c13          	mv	s8,a0
 2001a30:	00000513          	li	a0,0
 2001a34:	0100006f          	j	2001a44 <_ZN4core3fmt9Formatter12pad_integral17h49daac362a1afbe9E+0x224>
 2001a38:	00150593          	addi	a1,a0,1
 2001a3c:	00155513          	srli	a0,a0,0x1
 2001a40:	0015dc13          	srli	s8,a1,0x1
 2001a44:	01842a83          	lw	s5,24(s0)
 2001a48:	01c42c83          	lw	s9,28(s0)
 2001a4c:	00442b83          	lw	s7,4(s0)
 2001a50:	00150d13          	addi	s10,a0,1
 2001a54:	fffd0d13          	addi	s10,s10,-1
 2001a58:	000d0e63          	beqz	s10,2001a74 <_ZN4core3fmt9Formatter12pad_integral17h49daac362a1afbe9E+0x254>
 2001a5c:	010ca603          	lw	a2,16(s9)
 2001a60:	000a8513          	mv	a0,s5
 2001a64:	000b8593          	mv	a1,s7
 2001a68:	000600e7          	jalr	a2
 2001a6c:	fe0504e3          	beqz	a0,2001a54 <_ZN4core3fmt9Formatter12pad_integral17h49daac362a1afbe9E+0x234>
 2001a70:	0bc0006f          	j	2001b2c <_ZN4core3fmt9Formatter12pad_integral17h49daac362a1afbe9E+0x30c>
 2001a74:	00110537          	lui	a0,0x110
 2001a78:	00100a93          	li	s5,1
 2001a7c:	0aab8a63          	beq	s7,a0,2001b30 <_ZN4core3fmt9Formatter12pad_integral17h49daac362a1afbe9E+0x310>
 2001a80:	00040513          	mv	a0,s0
 2001a84:	000a0593          	mv	a1,s4
 2001a88:	000b0613          	mv	a2,s6
 2001a8c:	00098693          	mv	a3,s3
 2001a90:	00000097          	auipc	ra,0x0
 2001a94:	150080e7          	jalr	336(ra) # 2001be0 <_ZN4core3fmt9Formatter12pad_integral12write_prefix17he7a93227e99e5e4bE>
 2001a98:	08051c63          	bnez	a0,2001b30 <_ZN4core3fmt9Formatter12pad_integral17h49daac362a1afbe9E+0x310>
 2001a9c:	01c42583          	lw	a1,28(s0)
 2001aa0:	01842503          	lw	a0,24(s0)
 2001aa4:	00c5a683          	lw	a3,12(a1)
 2001aa8:	00090593          	mv	a1,s2
 2001aac:	00048613          	mv	a2,s1
 2001ab0:	000680e7          	jalr	a3
 2001ab4:	06051e63          	bnez	a0,2001b30 <_ZN4core3fmt9Formatter12pad_integral17h49daac362a1afbe9E+0x310>
 2001ab8:	01842483          	lw	s1,24(s0)
 2001abc:	01c42403          	lw	s0,28(s0)
 2001ac0:	00000913          	li	s2,0
 2001ac4:	112c0863          	beq	s8,s2,2001bd4 <_ZN4core3fmt9Formatter12pad_integral17h49daac362a1afbe9E+0x3b4>
 2001ac8:	01042603          	lw	a2,16(s0)
 2001acc:	00190913          	addi	s2,s2,1
 2001ad0:	00048513          	mv	a0,s1
 2001ad4:	000b8593          	mv	a1,s7
 2001ad8:	000600e7          	jalr	a2
 2001adc:	fe0504e3          	beqz	a0,2001ac4 <_ZN4core3fmt9Formatter12pad_integral17h49daac362a1afbe9E+0x2a4>
 2001ae0:	fff90513          	addi	a0,s2,-1
 2001ae4:	0f40006f          	j	2001bd8 <_ZN4core3fmt9Formatter12pad_integral17h49daac362a1afbe9E+0x3b8>
 2001ae8:	00050b13          	mv	s6,a0
 2001aec:	00000513          	li	a0,0
 2001af0:	0100006f          	j	2001b00 <_ZN4core3fmt9Formatter12pad_integral17h49daac362a1afbe9E+0x2e0>
 2001af4:	00150593          	addi	a1,a0,1 # 110001 <__bss_size+0x10ffb1>
 2001af8:	00155513          	srli	a0,a0,0x1
 2001afc:	0015db13          	srli	s6,a1,0x1
 2001b00:	01842a03          	lw	s4,24(s0)
 2001b04:	01c42a83          	lw	s5,28(s0)
 2001b08:	00442983          	lw	s3,4(s0)
 2001b0c:	00150b93          	addi	s7,a0,1
 2001b10:	fffb8b93          	addi	s7,s7,-1
 2001b14:	040b8c63          	beqz	s7,2001b6c <_ZN4core3fmt9Formatter12pad_integral17h49daac362a1afbe9E+0x34c>
 2001b18:	010aa603          	lw	a2,16(s5)
 2001b1c:	000a0513          	mv	a0,s4
 2001b20:	00098593          	mv	a1,s3
 2001b24:	000600e7          	jalr	a2
 2001b28:	fe0504e3          	beqz	a0,2001b10 <_ZN4core3fmt9Formatter12pad_integral17h49daac362a1afbe9E+0x2f0>
 2001b2c:	00100a93          	li	s5,1
 2001b30:	000a8513          	mv	a0,s5
 2001b34:	02c12083          	lw	ra,44(sp)
 2001b38:	02812403          	lw	s0,40(sp)
 2001b3c:	02412483          	lw	s1,36(sp)
 2001b40:	02012903          	lw	s2,32(sp)
 2001b44:	01c12983          	lw	s3,28(sp)
 2001b48:	01812a03          	lw	s4,24(sp)
 2001b4c:	01412a83          	lw	s5,20(sp)
 2001b50:	01012b03          	lw	s6,16(sp)
 2001b54:	00c12b83          	lw	s7,12(sp)
 2001b58:	00812c03          	lw	s8,8(sp)
 2001b5c:	00412c83          	lw	s9,4(sp)
 2001b60:	00012d03          	lw	s10,0(sp)
 2001b64:	03010113          	addi	sp,sp,48
 2001b68:	00008067          	ret
 2001b6c:	00110537          	lui	a0,0x110
 2001b70:	00100a93          	li	s5,1
 2001b74:	faa98ee3          	beq	s3,a0,2001b30 <_ZN4core3fmt9Formatter12pad_integral17h49daac362a1afbe9E+0x310>
 2001b78:	01c42583          	lw	a1,28(s0)
 2001b7c:	01842503          	lw	a0,24(s0)
 2001b80:	00c5a683          	lw	a3,12(a1)
 2001b84:	00090593          	mv	a1,s2
 2001b88:	00048613          	mv	a2,s1
 2001b8c:	000680e7          	jalr	a3
 2001b90:	fa0510e3          	bnez	a0,2001b30 <_ZN4core3fmt9Formatter12pad_integral17h49daac362a1afbe9E+0x310>
 2001b94:	01842483          	lw	s1,24(s0)
 2001b98:	01c42903          	lw	s2,28(s0)
 2001b9c:	00000a13          	li	s4,0
 2001ba0:	034b0263          	beq	s6,s4,2001bc4 <_ZN4core3fmt9Formatter12pad_integral17h49daac362a1afbe9E+0x3a4>
 2001ba4:	01092603          	lw	a2,16(s2)
 2001ba8:	001a0a13          	addi	s4,s4,1 # 110001 <__bss_size+0x10ffb1>
 2001bac:	00048513          	mv	a0,s1
 2001bb0:	00098593          	mv	a1,s3
 2001bb4:	000600e7          	jalr	a2
 2001bb8:	fe0504e3          	beqz	a0,2001ba0 <_ZN4core3fmt9Formatter12pad_integral17h49daac362a1afbe9E+0x380>
 2001bbc:	fffa0513          	addi	a0,s4,-1
 2001bc0:	f76568e3          	bltu	a0,s6,2001b30 <_ZN4core3fmt9Formatter12pad_integral17h49daac362a1afbe9E+0x310>
 2001bc4:	00000a93          	li	s5,0
 2001bc8:	01842223          	sw	s8,4(s0)
 2001bcc:	03940023          	sb	s9,32(s0)
 2001bd0:	f61ff06f          	j	2001b30 <_ZN4core3fmt9Formatter12pad_integral17h49daac362a1afbe9E+0x310>
 2001bd4:	000c0513          	mv	a0,s8
 2001bd8:	01853ab3          	sltu	s5,a0,s8
 2001bdc:	f55ff06f          	j	2001b30 <_ZN4core3fmt9Formatter12pad_integral17h49daac362a1afbe9E+0x310>

02001be0 <_ZN4core3fmt9Formatter12pad_integral12write_prefix17he7a93227e99e5e4bE>:
 2001be0:	ff010113          	addi	sp,sp,-16
 2001be4:	00112623          	sw	ra,12(sp)
 2001be8:	00812423          	sw	s0,8(sp)
 2001bec:	00912223          	sw	s1,4(sp)
 2001bf0:	01212023          	sw	s2,0(sp)
 2001bf4:	00110737          	lui	a4,0x110
 2001bf8:	00068413          	mv	s0,a3
 2001bfc:	00060493          	mv	s1,a2
 2001c00:	00050913          	mv	s2,a0
 2001c04:	02e58063          	beq	a1,a4,2001c24 <_ZN4core3fmt9Formatter12pad_integral12write_prefix17he7a93227e99e5e4bE+0x44>
 2001c08:	01c92603          	lw	a2,28(s2)
 2001c0c:	01892503          	lw	a0,24(s2)
 2001c10:	01062603          	lw	a2,16(a2)
 2001c14:	000600e7          	jalr	a2
 2001c18:	00050593          	mv	a1,a0
 2001c1c:	00100513          	li	a0,1
 2001c20:	02059c63          	bnez	a1,2001c58 <_ZN4core3fmt9Formatter12pad_integral12write_prefix17he7a93227e99e5e4bE+0x78>
 2001c24:	02048863          	beqz	s1,2001c54 <_ZN4core3fmt9Formatter12pad_integral12write_prefix17he7a93227e99e5e4bE+0x74>
 2001c28:	01c92583          	lw	a1,28(s2)
 2001c2c:	01892503          	lw	a0,24(s2)
 2001c30:	00c5a303          	lw	t1,12(a1)
 2001c34:	00048593          	mv	a1,s1
 2001c38:	00040613          	mv	a2,s0
 2001c3c:	00c12083          	lw	ra,12(sp)
 2001c40:	00812403          	lw	s0,8(sp)
 2001c44:	00412483          	lw	s1,4(sp)
 2001c48:	00012903          	lw	s2,0(sp)
 2001c4c:	01010113          	addi	sp,sp,16
 2001c50:	00030067          	jr	t1
 2001c54:	00000513          	li	a0,0
 2001c58:	00c12083          	lw	ra,12(sp)
 2001c5c:	00812403          	lw	s0,8(sp)
 2001c60:	00412483          	lw	s1,4(sp)
 2001c64:	00012903          	lw	s2,0(sp)
 2001c68:	01010113          	addi	sp,sp,16
 2001c6c:	00008067          	ret

02001c70 <_ZN4core3fmt9Formatter3pad17h494dc77c5027088dE>:
 2001c70:	fe010113          	addi	sp,sp,-32
 2001c74:	00112e23          	sw	ra,28(sp)
 2001c78:	00812c23          	sw	s0,24(sp)
 2001c7c:	00912a23          	sw	s1,20(sp)
 2001c80:	01212823          	sw	s2,16(sp)
 2001c84:	01312623          	sw	s3,12(sp)
 2001c88:	01412423          	sw	s4,8(sp)
 2001c8c:	01512223          	sw	s5,4(sp)
 2001c90:	01612023          	sw	s6,0(sp)
 2001c94:	00050913          	mv	s2,a0
 2001c98:	00852503          	lw	a0,8(a0) # 110008 <__bss_size+0x10ffb8>
 2001c9c:	01092683          	lw	a3,16(s2)
 2001ca0:	fff50713          	addi	a4,a0,-1
 2001ca4:	00e03733          	snez	a4,a4
 2001ca8:	fff68793          	addi	a5,a3,-1
 2001cac:	00f037b3          	snez	a5,a5
 2001cb0:	00f77733          	and	a4,a4,a5
 2001cb4:	00060413          	mv	s0,a2
 2001cb8:	00058493          	mv	s1,a1
 2001cbc:	1e071863          	bnez	a4,2001eac <_ZN4core3fmt9Formatter3pad17h494dc77c5027088dE+0x23c>
 2001cc0:	00100593          	li	a1,1
 2001cc4:	16b69263          	bne	a3,a1,2001e28 <_ZN4core3fmt9Formatter3pad17h494dc77c5027088dE+0x1b8>
 2001cc8:	01492683          	lw	a3,20(s2)
 2001ccc:	00848633          	add	a2,s1,s0
 2001cd0:	00000593          	li	a1,0
 2001cd4:	08068c63          	beqz	a3,2001d6c <_ZN4core3fmt9Formatter3pad17h494dc77c5027088dE+0xfc>
 2001cd8:	0e000713          	li	a4,224
 2001cdc:	0f000793          	li	a5,240
 2001ce0:	00110837          	lui	a6,0x110
 2001ce4:	00048893          	mv	a7,s1
 2001ce8:	01c0006f          	j	2001d04 <_ZN4core3fmt9Formatter3pad17h494dc77c5027088dE+0x94>
 2001cec:	00188293          	addi	t0,a7,1
 2001cf0:	411585b3          	sub	a1,a1,a7
 2001cf4:	fff68693          	addi	a3,a3,-1
 2001cf8:	005585b3          	add	a1,a1,t0
 2001cfc:	00028893          	mv	a7,t0
 2001d00:	06068863          	beqz	a3,2001d70 <_ZN4core3fmt9Formatter3pad17h494dc77c5027088dE+0x100>
 2001d04:	12c88263          	beq	a7,a2,2001e28 <_ZN4core3fmt9Formatter3pad17h494dc77c5027088dE+0x1b8>
 2001d08:	00088283          	lb	t0,0(a7)
 2001d0c:	fe02d0e3          	bgez	t0,2001cec <_ZN4core3fmt9Formatter3pad17h494dc77c5027088dE+0x7c>
 2001d10:	0ff2f293          	andi	t0,t0,255
 2001d14:	04e2e463          	bltu	t0,a4,2001d5c <_ZN4core3fmt9Formatter3pad17h494dc77c5027088dE+0xec>
 2001d18:	04f2e663          	bltu	t0,a5,2001d64 <_ZN4core3fmt9Formatter3pad17h494dc77c5027088dE+0xf4>
 2001d1c:	0018c303          	lbu	t1,1(a7)
 2001d20:	0028c383          	lbu	t2,2(a7)
 2001d24:	03f37313          	andi	t1,t1,63
 2001d28:	03f3f393          	andi	t2,t2,63
 2001d2c:	0038ce03          	lbu	t3,3(a7)
 2001d30:	01d29293          	slli	t0,t0,0x1d
 2001d34:	00b2d293          	srli	t0,t0,0xb
 2001d38:	00c31313          	slli	t1,t1,0xc
 2001d3c:	00639393          	slli	t2,t2,0x6
 2001d40:	0063e333          	or	t1,t2,t1
 2001d44:	03fe7393          	andi	t2,t3,63
 2001d48:	00736333          	or	t1,t1,t2
 2001d4c:	005362b3          	or	t0,t1,t0
 2001d50:	0d028c63          	beq	t0,a6,2001e28 <_ZN4core3fmt9Formatter3pad17h494dc77c5027088dE+0x1b8>
 2001d54:	00488293          	addi	t0,a7,4
 2001d58:	f99ff06f          	j	2001cf0 <_ZN4core3fmt9Formatter3pad17h494dc77c5027088dE+0x80>
 2001d5c:	00288293          	addi	t0,a7,2
 2001d60:	f91ff06f          	j	2001cf0 <_ZN4core3fmt9Formatter3pad17h494dc77c5027088dE+0x80>
 2001d64:	00388293          	addi	t0,a7,3
 2001d68:	f89ff06f          	j	2001cf0 <_ZN4core3fmt9Formatter3pad17h494dc77c5027088dE+0x80>
 2001d6c:	00048293          	mv	t0,s1
 2001d70:	0ac28c63          	beq	t0,a2,2001e28 <_ZN4core3fmt9Formatter3pad17h494dc77c5027088dE+0x1b8>
 2001d74:	00028603          	lb	a2,0(t0)
 2001d78:	04065a63          	bgez	a2,2001dcc <_ZN4core3fmt9Formatter3pad17h494dc77c5027088dE+0x15c>
 2001d7c:	0ff67613          	andi	a2,a2,255
 2001d80:	0e000693          	li	a3,224
 2001d84:	04d66463          	bltu	a2,a3,2001dcc <_ZN4core3fmt9Formatter3pad17h494dc77c5027088dE+0x15c>
 2001d88:	0f000693          	li	a3,240
 2001d8c:	04d66063          	bltu	a2,a3,2001dcc <_ZN4core3fmt9Formatter3pad17h494dc77c5027088dE+0x15c>
 2001d90:	0012c683          	lbu	a3,1(t0)
 2001d94:	0022c703          	lbu	a4,2(t0)
 2001d98:	03f6f693          	andi	a3,a3,63
 2001d9c:	03f77713          	andi	a4,a4,63
 2001da0:	0032c783          	lbu	a5,3(t0)
 2001da4:	01d61613          	slli	a2,a2,0x1d
 2001da8:	00b65613          	srli	a2,a2,0xb
 2001dac:	00c69693          	slli	a3,a3,0xc
 2001db0:	00671713          	slli	a4,a4,0x6
 2001db4:	00d766b3          	or	a3,a4,a3
 2001db8:	03f7f713          	andi	a4,a5,63
 2001dbc:	00e6e6b3          	or	a3,a3,a4
 2001dc0:	00c6e633          	or	a2,a3,a2
 2001dc4:	001106b7          	lui	a3,0x110
 2001dc8:	06d60063          	beq	a2,a3,2001e28 <_ZN4core3fmt9Formatter3pad17h494dc77c5027088dE+0x1b8>
 2001dcc:	02058663          	beqz	a1,2001df8 <_ZN4core3fmt9Formatter3pad17h494dc77c5027088dE+0x188>
 2001dd0:	0285fe63          	bgeu	a1,s0,2001e0c <_ZN4core3fmt9Formatter3pad17h494dc77c5027088dE+0x19c>
 2001dd4:	00b48633          	add	a2,s1,a1
 2001dd8:	00060603          	lb	a2,0(a2)
 2001ddc:	fc000693          	li	a3,-64
 2001de0:	1ad64063          	blt	a2,a3,2001f80 <_ZN4core3fmt9Formatter3pad17h494dc77c5027088dE+0x310>
 2001de4:	00058613          	mv	a2,a1
 2001de8:	00060593          	mv	a1,a2
 2001dec:	00048613          	mv	a2,s1
 2001df0:	02060c63          	beqz	a2,2001e28 <_ZN4core3fmt9Formatter3pad17h494dc77c5027088dE+0x1b8>
 2001df4:	02c0006f          	j	2001e20 <_ZN4core3fmt9Formatter3pad17h494dc77c5027088dE+0x1b0>
 2001df8:	00000613          	li	a2,0
 2001dfc:	00060593          	mv	a1,a2
 2001e00:	00048613          	mv	a2,s1
 2001e04:	02060263          	beqz	a2,2001e28 <_ZN4core3fmt9Formatter3pad17h494dc77c5027088dE+0x1b8>
 2001e08:	0180006f          	j	2001e20 <_ZN4core3fmt9Formatter3pad17h494dc77c5027088dE+0x1b0>
 2001e0c:	00040613          	mv	a2,s0
 2001e10:	16859863          	bne	a1,s0,2001f80 <_ZN4core3fmt9Formatter3pad17h494dc77c5027088dE+0x310>
 2001e14:	00060593          	mv	a1,a2
 2001e18:	00048613          	mv	a2,s1
 2001e1c:	00060663          	beqz	a2,2001e28 <_ZN4core3fmt9Formatter3pad17h494dc77c5027088dE+0x1b8>
 2001e20:	00060493          	mv	s1,a2
 2001e24:	00058413          	mv	s0,a1
 2001e28:	08050263          	beqz	a0,2001eac <_ZN4core3fmt9Formatter3pad17h494dc77c5027088dE+0x23c>
 2001e2c:	00c92983          	lw	s3,12(s2)
 2001e30:	01000513          	li	a0,16
 2001e34:	06a47263          	bgeu	s0,a0,2001e98 <_ZN4core3fmt9Formatter3pad17h494dc77c5027088dE+0x228>
 2001e38:	00000513          	li	a0,0
 2001e3c:	02040463          	beqz	s0,2001e64 <_ZN4core3fmt9Formatter3pad17h494dc77c5027088dE+0x1f4>
 2001e40:	fbf00593          	li	a1,-65
 2001e44:	00040613          	mv	a2,s0
 2001e48:	00048693          	mv	a3,s1
 2001e4c:	00068703          	lb	a4,0(a3) # 110000 <__bss_size+0x10ffb0>
 2001e50:	00168693          	addi	a3,a3,1
 2001e54:	00e5a733          	slt	a4,a1,a4
 2001e58:	fff60613          	addi	a2,a2,-1
 2001e5c:	00e50533          	add	a0,a0,a4
 2001e60:	fe0616e3          	bnez	a2,2001e4c <_ZN4core3fmt9Formatter3pad17h494dc77c5027088dE+0x1dc>
 2001e64:	05357463          	bgeu	a0,s3,2001eac <_ZN4core3fmt9Formatter3pad17h494dc77c5027088dE+0x23c>
 2001e68:	02094583          	lbu	a1,32(s2)
 2001e6c:	00300693          	li	a3,3
 2001e70:	00000613          	li	a2,0
 2001e74:	00d58463          	beq	a1,a3,2001e7c <_ZN4core3fmt9Formatter3pad17h494dc77c5027088dE+0x20c>
 2001e78:	00058613          	mv	a2,a1
 2001e7c:	00367593          	andi	a1,a2,3
 2001e80:	40a98533          	sub	a0,s3,a0
 2001e84:	06058263          	beqz	a1,2001ee8 <_ZN4core3fmt9Formatter3pad17h494dc77c5027088dE+0x278>
 2001e88:	00100613          	li	a2,1
 2001e8c:	06c59463          	bne	a1,a2,2001ef4 <_ZN4core3fmt9Formatter3pad17h494dc77c5027088dE+0x284>
 2001e90:	00000a93          	li	s5,0
 2001e94:	06c0006f          	j	2001f00 <_ZN4core3fmt9Formatter3pad17h494dc77c5027088dE+0x290>
 2001e98:	00048513          	mv	a0,s1
 2001e9c:	00040593          	mv	a1,s0
 2001ea0:	00001097          	auipc	ra,0x1
 2001ea4:	900080e7          	jalr	-1792(ra) # 20027a0 <_ZN4core3str5count14do_count_chars17h8194609739272a4dE>
 2001ea8:	fd3560e3          	bltu	a0,s3,2001e68 <_ZN4core3fmt9Formatter3pad17h494dc77c5027088dE+0x1f8>
 2001eac:	01c92583          	lw	a1,28(s2)
 2001eb0:	01892503          	lw	a0,24(s2)
 2001eb4:	00c5a303          	lw	t1,12(a1)
 2001eb8:	00048593          	mv	a1,s1
 2001ebc:	00040613          	mv	a2,s0
 2001ec0:	01c12083          	lw	ra,28(sp)
 2001ec4:	01812403          	lw	s0,24(sp)
 2001ec8:	01412483          	lw	s1,20(sp)
 2001ecc:	01012903          	lw	s2,16(sp)
 2001ed0:	00c12983          	lw	s3,12(sp)
 2001ed4:	00812a03          	lw	s4,8(sp)
 2001ed8:	00412a83          	lw	s5,4(sp)
 2001edc:	00012b03          	lw	s6,0(sp)
 2001ee0:	02010113          	addi	sp,sp,32
 2001ee4:	00030067          	jr	t1
 2001ee8:	00050a93          	mv	s5,a0
 2001eec:	00000513          	li	a0,0
 2001ef0:	0100006f          	j	2001f00 <_ZN4core3fmt9Formatter3pad17h494dc77c5027088dE+0x290>
 2001ef4:	00150593          	addi	a1,a0,1
 2001ef8:	00155513          	srli	a0,a0,0x1
 2001efc:	0015da93          	srli	s5,a1,0x1
 2001f00:	01892983          	lw	s3,24(s2)
 2001f04:	01c92b03          	lw	s6,28(s2)
 2001f08:	00492903          	lw	s2,4(s2)
 2001f0c:	00150a13          	addi	s4,a0,1
 2001f10:	fffa0a13          	addi	s4,s4,-1
 2001f14:	020a0063          	beqz	s4,2001f34 <_ZN4core3fmt9Formatter3pad17h494dc77c5027088dE+0x2c4>
 2001f18:	010b2603          	lw	a2,16(s6)
 2001f1c:	00098513          	mv	a0,s3
 2001f20:	00090593          	mv	a1,s2
 2001f24:	000600e7          	jalr	a2
 2001f28:	fe0504e3          	beqz	a0,2001f10 <_ZN4core3fmt9Formatter3pad17h494dc77c5027088dE+0x2a0>
 2001f2c:	00100a13          	li	s4,1
 2001f30:	0640006f          	j	2001f94 <_ZN4core3fmt9Formatter3pad17h494dc77c5027088dE+0x324>
 2001f34:	00110537          	lui	a0,0x110
 2001f38:	00100a13          	li	s4,1
 2001f3c:	04a90c63          	beq	s2,a0,2001f94 <_ZN4core3fmt9Formatter3pad17h494dc77c5027088dE+0x324>
 2001f40:	00cb2683          	lw	a3,12(s6)
 2001f44:	00098513          	mv	a0,s3
 2001f48:	00048593          	mv	a1,s1
 2001f4c:	00040613          	mv	a2,s0
 2001f50:	000680e7          	jalr	a3
 2001f54:	04051063          	bnez	a0,2001f94 <_ZN4core3fmt9Formatter3pad17h494dc77c5027088dE+0x324>
 2001f58:	00000413          	li	s0,0
 2001f5c:	028a8863          	beq	s5,s0,2001f8c <_ZN4core3fmt9Formatter3pad17h494dc77c5027088dE+0x31c>
 2001f60:	010b2603          	lw	a2,16(s6)
 2001f64:	00140413          	addi	s0,s0,1
 2001f68:	00098513          	mv	a0,s3
 2001f6c:	00090593          	mv	a1,s2
 2001f70:	000600e7          	jalr	a2
 2001f74:	fe0504e3          	beqz	a0,2001f5c <_ZN4core3fmt9Formatter3pad17h494dc77c5027088dE+0x2ec>
 2001f78:	fff40513          	addi	a0,s0,-1
 2001f7c:	0140006f          	j	2001f90 <_ZN4core3fmt9Formatter3pad17h494dc77c5027088dE+0x320>
 2001f80:	00000613          	li	a2,0
 2001f84:	ea0602e3          	beqz	a2,2001e28 <_ZN4core3fmt9Formatter3pad17h494dc77c5027088dE+0x1b8>
 2001f88:	e99ff06f          	j	2001e20 <_ZN4core3fmt9Formatter3pad17h494dc77c5027088dE+0x1b0>
 2001f8c:	000a8513          	mv	a0,s5
 2001f90:	01553a33          	sltu	s4,a0,s5
 2001f94:	000a0513          	mv	a0,s4
 2001f98:	01c12083          	lw	ra,28(sp)
 2001f9c:	01812403          	lw	s0,24(sp)
 2001fa0:	01412483          	lw	s1,20(sp)
 2001fa4:	01012903          	lw	s2,16(sp)
 2001fa8:	00c12983          	lw	s3,12(sp)
 2001fac:	00812a03          	lw	s4,8(sp)
 2001fb0:	00412a83          	lw	s5,4(sp)
 2001fb4:	00012b03          	lw	s6,0(sp)
 2001fb8:	02010113          	addi	sp,sp,32
 2001fbc:	00008067          	ret

02001fc0 <_ZN4core3fmt9Formatter9write_str17h3c60346ca7581e32E>:
 2001fc0:	01c52683          	lw	a3,28(a0) # 11001c <__bss_size+0x10ffcc>
 2001fc4:	01852503          	lw	a0,24(a0)
 2001fc8:	00c6a303          	lw	t1,12(a3)
 2001fcc:	00030067          	jr	t1

02001fd0 <_ZN4core3fmt9Formatter15debug_lower_hex17h85ae48093de78bd8E>:
 2001fd0:	00054503          	lbu	a0,0(a0)
 2001fd4:	01b51513          	slli	a0,a0,0x1b
 2001fd8:	01f55513          	srli	a0,a0,0x1f
 2001fdc:	00008067          	ret

02001fe0 <_ZN4core3fmt9Formatter15debug_upper_hex17h4857b6d886493d64E>:
 2001fe0:	00054503          	lbu	a0,0(a0)
 2001fe4:	01a51513          	slli	a0,a0,0x1a
 2001fe8:	01f55513          	srli	a0,a0,0x1f
 2001fec:	00008067          	ret

02001ff0 <_ZN53_$LT$core..fmt..Error$u20$as$u20$core..fmt..Debug$GT$3fmt17h20e328e27b64bb3fE>:
 2001ff0:	01c5a603          	lw	a2,28(a1)
 2001ff4:	0185a503          	lw	a0,24(a1)
 2001ff8:	00c62303          	lw	t1,12(a2)
 2001ffc:	020035b7          	lui	a1,0x2003
 2002000:	3c658593          	addi	a1,a1,966 # 20033c6 <.Lanon.22c43593289ff1ba4784f41adbe21c29.18>
 2002004:	00500613          	li	a2,5
 2002008:	00030067          	jr	t1

0200200c <_ZN42_$LT$$RF$T$u20$as$u20$core..fmt..Debug$GT$3fmt17h740a6c06e8dbea10E>:
 200200c:	00452603          	lw	a2,4(a0)
 2002010:	00052503          	lw	a0,0(a0)
 2002014:	00c62303          	lw	t1,12(a2)
 2002018:	00030067          	jr	t1

0200201c <_ZN44_$LT$$RF$T$u20$as$u20$core..fmt..Display$GT$3fmt17h20540366290e1021E>:
 200201c:	00052503          	lw	a0,0(a0)
 2002020:	00052683          	lw	a3,0(a0)
 2002024:	00452603          	lw	a2,4(a0)
 2002028:	00058513          	mv	a0,a1
 200202c:	00068593          	mv	a1,a3
 2002030:	00000317          	auipc	t1,0x0
 2002034:	c4030067          	jr	-960(t1) # 2001c70 <_ZN4core3fmt9Formatter3pad17h494dc77c5027088dE>

02002038 <_ZN44_$LT$$RF$T$u20$as$u20$core..fmt..Display$GT$3fmt17h594cdcb11c2fa970E>:
 2002038:	fe010113          	addi	sp,sp,-32
 200203c:	00112e23          	sw	ra,28(sp)
 2002040:	00052603          	lw	a2,0(a0)
 2002044:	01462503          	lw	a0,20(a2)
 2002048:	00a12a23          	sw	a0,20(sp)
 200204c:	01062503          	lw	a0,16(a2)
 2002050:	00a12823          	sw	a0,16(sp)
 2002054:	00c62503          	lw	a0,12(a2)
 2002058:	00a12623          	sw	a0,12(sp)
 200205c:	00862503          	lw	a0,8(a2)
 2002060:	00a12423          	sw	a0,8(sp)
 2002064:	00462683          	lw	a3,4(a2)
 2002068:	0185a503          	lw	a0,24(a1)
 200206c:	00d12223          	sw	a3,4(sp)
 2002070:	00062603          	lw	a2,0(a2)
 2002074:	01c5a583          	lw	a1,28(a1)
 2002078:	00c12023          	sw	a2,0(sp)
 200207c:	00010613          	mv	a2,sp
 2002080:	fffff097          	auipc	ra,0xfffff
 2002084:	530080e7          	jalr	1328(ra) # 20015b0 <_ZN4core3fmt5write17h794c1b4bc7ce1df0E>
 2002088:	01c12083          	lw	ra,28(sp)
 200208c:	02010113          	addi	sp,sp,32
 2002090:	00008067          	ret

02002094 <_ZN44_$LT$$RF$T$u20$as$u20$core..fmt..Display$GT$3fmt17h9df06bddb984bfbbE>:
 2002094:	00052683          	lw	a3,0(a0)
 2002098:	00452603          	lw	a2,4(a0)
 200209c:	00058513          	mv	a0,a1
 20020a0:	00068593          	mv	a1,a3
 20020a4:	00000317          	auipc	t1,0x0
 20020a8:	bcc30067          	jr	-1076(t1) # 2001c70 <_ZN4core3fmt9Formatter3pad17h494dc77c5027088dE>

020020ac <_ZN4core3fmt3num3imp7fmt_u3217h3ff0d148bc61abadE.llvm.14863313909448028709>:
 20020ac:	fc010113          	addi	sp,sp,-64
 20020b0:	02112e23          	sw	ra,60(sp)
 20020b4:	02812c23          	sw	s0,56(sp)
 20020b8:	02912a23          	sw	s1,52(sp)
 20020bc:	00060693          	mv	a3,a2
 20020c0:	00455713          	srli	a4,a0,0x4
 20020c4:	27100793          	li	a5,625
 20020c8:	02700613          	li	a2,39
 20020cc:	02f77663          	bgeu	a4,a5,20020f8 <_ZN4core3fmt3num3imp7fmt_u3217h3ff0d148bc61abadE.llvm.14863313909448028709+0x4c>
 20020d0:	06300713          	li	a4,99
 20020d4:	0ca76863          	bltu	a4,a0,20021a4 <_ZN4core3fmt3num3imp7fmt_u3217h3ff0d148bc61abadE.llvm.14863313909448028709+0xf8>
 20020d8:	00a00713          	li	a4,10
 20020dc:	12e57463          	bgeu	a0,a4,2002204 <_ZN4core3fmt3num3imp7fmt_u3217h3ff0d148bc61abadE.llvm.14863313909448028709+0x158>
 20020e0:	fff60613          	addi	a2,a2,-1
 20020e4:	00d10713          	addi	a4,sp,13
 20020e8:	00c70733          	add	a4,a4,a2
 20020ec:	03050513          	addi	a0,a0,48
 20020f0:	00a70023          	sb	a0,0(a4) # 110000 <__bss_size+0x10ffb0>
 20020f4:	13c0006f          	j	2002230 <_ZN4core3fmt3num3imp7fmt_u3217h3ff0d148bc61abadE.llvm.14863313909448028709+0x184>
 20020f8:	00000613          	li	a2,0
 20020fc:	d1b71737          	lui	a4,0xd1b71
 2002100:	75970713          	addi	a4,a4,1881 # d1b71759 <anon.21be27dcbcfea609e6fb5c090ac782fb.31.llvm.13982520288002575779+0xcfb6e0f1>
 2002104:	000027b7          	lui	a5,0x2
 2002108:	71078793          	addi	a5,a5,1808 # 2710 <__bss_size+0x26c0>
 200210c:	00001837          	lui	a6,0x1
 2002110:	47b80813          	addi	a6,a6,1147 # 147b <__bss_size+0x142b>
 2002114:	06400893          	li	a7,100
 2002118:	020032b7          	lui	t0,0x2003
 200211c:	2fe28293          	addi	t0,t0,766 # 20032fe <anon.c51e510c33fdcff7e0fba59f411f82da.5.llvm.5083173684601433623>
 2002120:	00d10313          	addi	t1,sp,13
 2002124:	05f5e3b7          	lui	t2,0x5f5e
 2002128:	0ff38393          	addi	t2,t2,255 # 5f5e0ff <anon.21be27dcbcfea609e6fb5c090ac782fb.31.llvm.13982520288002575779+0x3f5aa97>
 200212c:	00050e13          	mv	t3,a0
 2002130:	02e53533          	mulhu	a0,a0,a4
 2002134:	00d55513          	srli	a0,a0,0xd
 2002138:	02f50eb3          	mul	t4,a0,a5
 200213c:	41de0eb3          	sub	t4,t3,t4
 2002140:	010e9f13          	slli	t5,t4,0x10
 2002144:	012f5f13          	srli	t5,t5,0x12
 2002148:	030f0f33          	mul	t5,t5,a6
 200214c:	011f5f13          	srli	t5,t5,0x11
 2002150:	001f1f93          	slli	t6,t5,0x1
 2002154:	031f0f33          	mul	t5,t5,a7
 2002158:	41ee8eb3          	sub	t4,t4,t5
 200215c:	011e9e93          	slli	t4,t4,0x11
 2002160:	010ede93          	srli	t4,t4,0x10
 2002164:	005f8f33          	add	t5,t6,t0
 2002168:	00c30fb3          	add	t6,t1,a2
 200216c:	000f4403          	lbu	s0,0(t5)
 2002170:	001f0f03          	lb	t5,1(t5)
 2002174:	005e8eb3          	add	t4,t4,t0
 2002178:	001e8483          	lb	s1,1(t4)
 200217c:	000ece83          	lbu	t4,0(t4)
 2002180:	03ef8223          	sb	t5,36(t6)
 2002184:	028f81a3          	sb	s0,35(t6)
 2002188:	029f8323          	sb	s1,38(t6)
 200218c:	03df82a3          	sb	t4,37(t6)
 2002190:	ffc60613          	addi	a2,a2,-4
 2002194:	f9c3ece3          	bltu	t2,t3,200212c <_ZN4core3fmt3num3imp7fmt_u3217h3ff0d148bc61abadE.llvm.14863313909448028709+0x80>
 2002198:	02760613          	addi	a2,a2,39
 200219c:	06300713          	li	a4,99
 20021a0:	f2a77ce3          	bgeu	a4,a0,20020d8 <_ZN4core3fmt3num3imp7fmt_u3217h3ff0d148bc61abadE.llvm.14863313909448028709+0x2c>
 20021a4:	01051713          	slli	a4,a0,0x10
 20021a8:	01275713          	srli	a4,a4,0x12
 20021ac:	000017b7          	lui	a5,0x1
 20021b0:	47b78793          	addi	a5,a5,1147 # 147b <__bss_size+0x142b>
 20021b4:	02f70733          	mul	a4,a4,a5
 20021b8:	01175713          	srli	a4,a4,0x11
 20021bc:	06400793          	li	a5,100
 20021c0:	02f707b3          	mul	a5,a4,a5
 20021c4:	40f50533          	sub	a0,a0,a5
 20021c8:	01151513          	slli	a0,a0,0x11
 20021cc:	01055513          	srli	a0,a0,0x10
 20021d0:	ffe60613          	addi	a2,a2,-2
 20021d4:	020037b7          	lui	a5,0x2003
 20021d8:	2fe78793          	addi	a5,a5,766 # 20032fe <anon.c51e510c33fdcff7e0fba59f411f82da.5.llvm.5083173684601433623>
 20021dc:	00f50533          	add	a0,a0,a5
 20021e0:	00150783          	lb	a5,1(a0)
 20021e4:	00054503          	lbu	a0,0(a0)
 20021e8:	00d10813          	addi	a6,sp,13
 20021ec:	00c80833          	add	a6,a6,a2
 20021f0:	00f800a3          	sb	a5,1(a6)
 20021f4:	00a80023          	sb	a0,0(a6)
 20021f8:	00070513          	mv	a0,a4
 20021fc:	00a00713          	li	a4,10
 2002200:	eee560e3          	bltu	a0,a4,20020e0 <_ZN4core3fmt3num3imp7fmt_u3217h3ff0d148bc61abadE.llvm.14863313909448028709+0x34>
 2002204:	00151513          	slli	a0,a0,0x1
 2002208:	ffe60613          	addi	a2,a2,-2
 200220c:	02003737          	lui	a4,0x2003
 2002210:	2fe70713          	addi	a4,a4,766 # 20032fe <anon.c51e510c33fdcff7e0fba59f411f82da.5.llvm.5083173684601433623>
 2002214:	00e50533          	add	a0,a0,a4
 2002218:	00150703          	lb	a4,1(a0)
 200221c:	00054503          	lbu	a0,0(a0)
 2002220:	00d10793          	addi	a5,sp,13
 2002224:	00c787b3          	add	a5,a5,a2
 2002228:	00e780a3          	sb	a4,1(a5)
 200222c:	00a78023          	sb	a0,0(a5)
 2002230:	00d10513          	addi	a0,sp,13
 2002234:	00c50733          	add	a4,a0,a2
 2002238:	02700513          	li	a0,39
 200223c:	40c507b3          	sub	a5,a0,a2
 2002240:	02003537          	lui	a0,0x2003
 2002244:	3cb50613          	addi	a2,a0,971 # 20033cb <.Lanon.22b908e0efc481e29f43de9869fcdc20.0>
 2002248:	00068513          	mv	a0,a3
 200224c:	00000693          	li	a3,0
 2002250:	fffff097          	auipc	ra,0xfffff
 2002254:	5d0080e7          	jalr	1488(ra) # 2001820 <_ZN4core3fmt9Formatter12pad_integral17h49daac362a1afbe9E>
 2002258:	03c12083          	lw	ra,60(sp)
 200225c:	03812403          	lw	s0,56(sp)
 2002260:	03412483          	lw	s1,52(sp)
 2002264:	04010113          	addi	sp,sp,64
 2002268:	00008067          	ret

0200226c <_ZN4core3fmt3num3imp52_$LT$impl$u20$core..fmt..Display$u20$for$u20$u32$GT$3fmt17h7dc147fbf5c515fcE>:
 200226c:	00052503          	lw	a0,0(a0)
 2002270:	00058613          	mv	a2,a1
 2002274:	00100593          	li	a1,1
 2002278:	00000317          	auipc	t1,0x0
 200227c:	e3430067          	jr	-460(t1) # 20020ac <_ZN4core3fmt3num3imp7fmt_u3217h3ff0d148bc61abadE.llvm.14863313909448028709>

02002280 <_ZN4core3ops8function6FnOnce9call_once17h1242987bdd5e98beE.llvm.15918792878434100127>:
 2002280:	00000097          	auipc	ra,0x0
 2002284:	7b4080e7          	jalr	1972(ra) # 2002a34 <_ZN4core5slice5index27slice_end_index_len_fail_rt17hb41445c4e583962fE>
 2002288:	c0001073          	unimp

0200228c <_ZN4core3ops8function6FnOnce9call_once17h13b1214d52fbdb63E.llvm.15918792878434100127>:
 200228c:	00000097          	auipc	ra,0x0
 2002290:	734080e7          	jalr	1844(ra) # 20029c0 <_ZN4core5slice5index29slice_start_index_len_fail_rt17h13f31fd0de6a3710E>
 2002294:	c0001073          	unimp

02002298 <_ZN4core3ops8function6FnOnce9call_once17h862aaa592cc56391E.llvm.15918792878434100127>:
 2002298:	00001097          	auipc	ra,0x1
 200229c:	810080e7          	jalr	-2032(ra) # 2002aa8 <_ZN4core5slice5index25slice_index_order_fail_rt17hc72d1d9b94b09053E>
 20022a0:	c0001073          	unimp

020022a4 <_ZN4core3ptr28drop_in_place$LT$$RF$u64$GT$17he2235075dfe11d40E.llvm.15918792878434100127>:
 20022a4:	00008067          	ret

020022a8 <_ZN4core10intrinsics17const_eval_select17h67686a7108bd15e2E>:
 20022a8:	00000097          	auipc	ra,0x0
 20022ac:	ff0080e7          	jalr	-16(ra) # 2002298 <_ZN4core3ops8function6FnOnce9call_once17h862aaa592cc56391E.llvm.15918792878434100127>
 20022b0:	c0001073          	unimp

020022b4 <_ZN4core10intrinsics17const_eval_select17h830a34504e58e206E>:
 20022b4:	00000097          	auipc	ra,0x0
 20022b8:	fcc080e7          	jalr	-52(ra) # 2002280 <_ZN4core3ops8function6FnOnce9call_once17h1242987bdd5e98beE.llvm.15918792878434100127>
 20022bc:	c0001073          	unimp

020022c0 <_ZN4core10intrinsics17const_eval_select17hf16e48560096d238E>:
 20022c0:	00000097          	auipc	ra,0x0
 20022c4:	fcc080e7          	jalr	-52(ra) # 200228c <_ZN4core3ops8function6FnOnce9call_once17h13b1214d52fbdb63E.llvm.15918792878434100127>
 20022c8:	c0001073          	unimp

020022cc <_ZN36_$LT$T$u20$as$u20$core..any..Any$GT$7type_id17hdffa28c1790079a0E>:
 20022cc:	36809537          	lui	a0,0x36809
 20022d0:	f8150513          	addi	a0,a0,-127 # 36808f81 <anon.21be27dcbcfea609e6fb5c090ac782fb.31.llvm.13982520288002575779+0x34805919>
 20022d4:	19bac5b7          	lui	a1,0x19bac
 20022d8:	96f58593          	addi	a1,a1,-1681 # 19bab96f <anon.21be27dcbcfea609e6fb5c090ac782fb.31.llvm.13982520288002575779+0x17ba8307>
 20022dc:	00008067          	ret

020022e0 <_ZN73_$LT$core..panic..panic_info..PanicInfo$u20$as$u20$core..fmt..Display$GT$3fmt17hee40d5be6fda54ceE>:
 20022e0:	fb010113          	addi	sp,sp,-80
 20022e4:	04112623          	sw	ra,76(sp)
 20022e8:	04812423          	sw	s0,72(sp)
 20022ec:	04912223          	sw	s1,68(sp)
 20022f0:	05212023          	sw	s2,64(sp)
 20022f4:	03312e23          	sw	s3,60(sp)
 20022f8:	01c5a403          	lw	s0,28(a1)
 20022fc:	0185a483          	lw	s1,24(a1)
 2002300:	00c42683          	lw	a3,12(s0)
 2002304:	00050913          	mv	s2,a0
 2002308:	02003537          	lui	a0,0x2003
 200230c:	3dc50593          	addi	a1,a0,988 # 20033dc <.Lanon.2203139f4e9627d5c180bbdcdb8a88f3.14>
 2002310:	00c00613          	li	a2,12
 2002314:	00048513          	mv	a0,s1
 2002318:	000680e7          	jalr	a3
 200231c:	00100993          	li	s3,1
 2002320:	12051063          	bnez	a0,2002440 <_ZN73_$LT$core..panic..panic_info..PanicInfo$u20$as$u20$core..fmt..Display$GT$3fmt17hee40d5be6fda54ceE+0x160>
 2002324:	00892503          	lw	a0,8(s2)
 2002328:	00050e63          	beqz	a0,2002344 <_ZN73_$LT$core..panic..panic_info..PanicInfo$u20$as$u20$core..fmt..Display$GT$3fmt17hee40d5be6fda54ceE+0x64>
 200232c:	00a12223          	sw	a0,4(sp)
 2002330:	00410513          	addi	a0,sp,4
 2002334:	00a12423          	sw	a0,8(sp)
 2002338:	02002537          	lui	a0,0x2002
 200233c:	03850513          	addi	a0,a0,56 # 2002038 <_ZN44_$LT$$RF$T$u20$as$u20$core..fmt..Display$GT$3fmt17h594cdcb11c2fa970E>
 2002340:	04c0006f          	j	200238c <_ZN73_$LT$core..panic..panic_info..PanicInfo$u20$as$u20$core..fmt..Display$GT$3fmt17hee40d5be6fda54ceE+0xac>
 2002344:	00492503          	lw	a0,4(s2)
 2002348:	00092983          	lw	s3,0(s2)
 200234c:	00c52583          	lw	a1,12(a0)
 2002350:	00098513          	mv	a0,s3
 2002354:	000580e7          	jalr	a1
 2002358:	b8ae4637          	lui	a2,0xb8ae4
 200235c:	dc760613          	addi	a2,a2,-569 # b8ae3dc7 <anon.21be27dcbcfea609e6fb5c090ac782fb.31.llvm.13982520288002575779+0xb6ae075f>
 2002360:	00c5c5b3          	xor	a1,a1,a2
 2002364:	22b9f637          	lui	a2,0x22b9f
 2002368:	20b60613          	addi	a2,a2,523 # 22b9f20b <anon.21be27dcbcfea609e6fb5c090ac782fb.31.llvm.13982520288002575779+0x20b9bba3>
 200236c:	00c54533          	xor	a0,a0,a2
 2002370:	00b56533          	or	a0,a0,a1
 2002374:	04051e63          	bnez	a0,20023d0 <_ZN73_$LT$core..panic..panic_info..PanicInfo$u20$as$u20$core..fmt..Display$GT$3fmt17hee40d5be6fda54ceE+0xf0>
 2002378:	01312223          	sw	s3,4(sp)
 200237c:	00410513          	addi	a0,sp,4
 2002380:	00a12423          	sw	a0,8(sp)
 2002384:	02002537          	lui	a0,0x2002
 2002388:	01c50513          	addi	a0,a0,28 # 200201c <_ZN44_$LT$$RF$T$u20$as$u20$core..fmt..Display$GT$3fmt17h20540366290e1021E>
 200238c:	00a12623          	sw	a0,12(sp)
 2002390:	02003537          	lui	a0,0x2003
 2002394:	3ec50513          	addi	a0,a0,1004 # 20033ec <.Lanon.2203139f4e9627d5c180bbdcdb8a88f3.17>
 2002398:	02a12023          	sw	a0,32(sp)
 200239c:	00200513          	li	a0,2
 20023a0:	02a12223          	sw	a0,36(sp)
 20023a4:	02012423          	sw	zero,40(sp)
 20023a8:	00810513          	addi	a0,sp,8
 20023ac:	02a12823          	sw	a0,48(sp)
 20023b0:	00100993          	li	s3,1
 20023b4:	03312a23          	sw	s3,52(sp)
 20023b8:	02010613          	addi	a2,sp,32
 20023bc:	00048513          	mv	a0,s1
 20023c0:	00040593          	mv	a1,s0
 20023c4:	fffff097          	auipc	ra,0xfffff
 20023c8:	1ec080e7          	jalr	492(ra) # 20015b0 <_ZN4core3fmt5write17h794c1b4bc7ce1df0E>
 20023cc:	06051a63          	bnez	a0,2002440 <_ZN73_$LT$core..panic..panic_info..PanicInfo$u20$as$u20$core..fmt..Display$GT$3fmt17hee40d5be6fda54ceE+0x160>
 20023d0:	00c92503          	lw	a0,12(s2)
 20023d4:	00850593          	addi	a1,a0,8
 20023d8:	00c50613          	addi	a2,a0,12
 20023dc:	00a12423          	sw	a0,8(sp)
 20023e0:	02002537          	lui	a0,0x2002
 20023e4:	09450513          	addi	a0,a0,148 # 2002094 <_ZN44_$LT$$RF$T$u20$as$u20$core..fmt..Display$GT$3fmt17h9df06bddb984bfbbE>
 20023e8:	00a12623          	sw	a0,12(sp)
 20023ec:	00b12823          	sw	a1,16(sp)
 20023f0:	02002537          	lui	a0,0x2002
 20023f4:	26c50513          	addi	a0,a0,620 # 200226c <_ZN4core3fmt3num3imp52_$LT$impl$u20$core..fmt..Display$u20$for$u20$u32$GT$3fmt17h7dc147fbf5c515fcE>
 20023f8:	00a12a23          	sw	a0,20(sp)
 20023fc:	00c12c23          	sw	a2,24(sp)
 2002400:	00a12e23          	sw	a0,28(sp)
 2002404:	02003537          	lui	a0,0x2003
 2002408:	4d050513          	addi	a0,a0,1232 # 20034d0 <anon.2b75a7cf91ec249210fcc70369ead3ee.39.llvm.3288291684404716833>
 200240c:	02a12023          	sw	a0,32(sp)
 2002410:	00300513          	li	a0,3
 2002414:	02a12223          	sw	a0,36(sp)
 2002418:	02012423          	sw	zero,40(sp)
 200241c:	00810593          	addi	a1,sp,8
 2002420:	02b12823          	sw	a1,48(sp)
 2002424:	02a12a23          	sw	a0,52(sp)
 2002428:	02010613          	addi	a2,sp,32
 200242c:	00048513          	mv	a0,s1
 2002430:	00040593          	mv	a1,s0
 2002434:	fffff097          	auipc	ra,0xfffff
 2002438:	17c080e7          	jalr	380(ra) # 20015b0 <_ZN4core3fmt5write17h794c1b4bc7ce1df0E>
 200243c:	00050993          	mv	s3,a0
 2002440:	00098513          	mv	a0,s3
 2002444:	04c12083          	lw	ra,76(sp)
 2002448:	04812403          	lw	s0,72(sp)
 200244c:	04412483          	lw	s1,68(sp)
 2002450:	04012903          	lw	s2,64(sp)
 2002454:	03c12983          	lw	s3,60(sp)
 2002458:	05010113          	addi	sp,sp,80
 200245c:	00008067          	ret

02002460 <_ZN4core9panicking5panic17hf6ba736fe98a128dE>:
 2002460:	fe010113          	addi	sp,sp,-32
 2002464:	00a12c23          	sw	a0,24(sp)
 2002468:	00b12e23          	sw	a1,28(sp)
 200246c:	01810513          	addi	a0,sp,24
 2002470:	00a12023          	sw	a0,0(sp)
 2002474:	00100513          	li	a0,1
 2002478:	00a12223          	sw	a0,4(sp)
 200247c:	00012423          	sw	zero,8(sp)
 2002480:	02003537          	lui	a0,0x2003
 2002484:	3cc50513          	addi	a0,a0,972 # 20033cc <.Lanon.2203139f4e9627d5c180bbdcdb8a88f3.13>
 2002488:	00a12823          	sw	a0,16(sp)
 200248c:	00012a23          	sw	zero,20(sp)
 2002490:	00010513          	mv	a0,sp
 2002494:	00060593          	mv	a1,a2
 2002498:	00000097          	auipc	ra,0x0
 200249c:	070080e7          	jalr	112(ra) # 2002508 <_ZN4core9panicking9panic_fmt17h2f79f0b41003eeb7E>
 20024a0:	c0001073          	unimp

020024a4 <_ZN4core9panicking18panic_bounds_check17h49746aec5244fac9E>:
 20024a4:	fd010113          	addi	sp,sp,-48
 20024a8:	00a12023          	sw	a0,0(sp)
 20024ac:	00b12223          	sw	a1,4(sp)
 20024b0:	00410513          	addi	a0,sp,4
 20024b4:	02a12023          	sw	a0,32(sp)
 20024b8:	02002537          	lui	a0,0x2002
 20024bc:	26c50513          	addi	a0,a0,620 # 200226c <_ZN4core3fmt3num3imp52_$LT$impl$u20$core..fmt..Display$u20$for$u20$u32$GT$3fmt17h7dc147fbf5c515fcE>
 20024c0:	02a12223          	sw	a0,36(sp)
 20024c4:	00010593          	mv	a1,sp
 20024c8:	02b12423          	sw	a1,40(sp)
 20024cc:	02a12623          	sw	a0,44(sp)
 20024d0:	02003537          	lui	a0,0x2003
 20024d4:	43050513          	addi	a0,a0,1072 # 2003430 <.Lanon.2203139f4e9627d5c180bbdcdb8a88f3.21>
 20024d8:	00a12423          	sw	a0,8(sp)
 20024dc:	00200513          	li	a0,2
 20024e0:	00a12623          	sw	a0,12(sp)
 20024e4:	00012823          	sw	zero,16(sp)
 20024e8:	02010593          	addi	a1,sp,32
 20024ec:	00b12c23          	sw	a1,24(sp)
 20024f0:	00a12e23          	sw	a0,28(sp)
 20024f4:	00810513          	addi	a0,sp,8
 20024f8:	00060593          	mv	a1,a2
 20024fc:	00000097          	auipc	ra,0x0
 2002500:	00c080e7          	jalr	12(ra) # 2002508 <_ZN4core9panicking9panic_fmt17h2f79f0b41003eeb7E>
 2002504:	c0001073          	unimp

02002508 <_ZN4core9panicking9panic_fmt17h2f79f0b41003eeb7E>:
 2002508:	fe010113          	addi	sp,sp,-32
 200250c:	02003637          	lui	a2,0x2003
 2002510:	3cc60613          	addi	a2,a2,972 # 20033cc <.Lanon.2203139f4e9627d5c180bbdcdb8a88f3.13>
 2002514:	00c12423          	sw	a2,8(sp)
 2002518:	02003637          	lui	a2,0x2003
 200251c:	3cc60613          	addi	a2,a2,972 # 20033cc <.Lanon.2203139f4e9627d5c180bbdcdb8a88f3.13>
 2002520:	00c12623          	sw	a2,12(sp)
 2002524:	00a12823          	sw	a0,16(sp)
 2002528:	00b12a23          	sw	a1,20(sp)
 200252c:	00100513          	li	a0,1
 2002530:	00a10c23          	sb	a0,24(sp)
 2002534:	00810513          	addi	a0,sp,8
 2002538:	ffffe097          	auipc	ra,0xffffe
 200253c:	580080e7          	jalr	1408(ra) # 2000ab8 <rust_begin_unwind>
 2002540:	c0001073          	unimp

02002544 <_ZN4core9panicking19assert_failed_inner17h423894f4fbad8f91E>:
 2002544:	f9010113          	addi	sp,sp,-112
 2002548:	00b12423          	sw	a1,8(sp)
 200254c:	00c12623          	sw	a2,12(sp)
 2002550:	00d12823          	sw	a3,16(sp)
 2002554:	0ff57513          	andi	a0,a0,255
 2002558:	00e12a23          	sw	a4,20(sp)
 200255c:	00050c63          	beqz	a0,2002574 <_ZN4core9panicking19assert_failed_inner17h423894f4fbad8f91E+0x30>
 2002560:	00100593          	li	a1,1
 2002564:	08b51463          	bne	a0,a1,20025ec <_ZN4core9panicking19assert_failed_inner17h423894f4fbad8f91E+0xa8>
 2002568:	02003537          	lui	a0,0x2003
 200256c:	44750513          	addi	a0,a0,1095 # 2003447 <.Lanon.2203139f4e9627d5c180bbdcdb8a88f3.31>
 2002570:	00c0006f          	j	200257c <_ZN4core9panicking19assert_failed_inner17h423894f4fbad8f91E+0x38>
 2002574:	02003537          	lui	a0,0x2003
 2002578:	44950513          	addi	a0,a0,1097 # 2003449 <.Lanon.2203139f4e9627d5c180bbdcdb8a88f3.32>
 200257c:	00a12c23          	sw	a0,24(sp)
 2002580:	00200513          	li	a0,2
 2002584:	0007a583          	lw	a1,0(a5)
 2002588:	00a12e23          	sw	a0,28(sp)
 200258c:	06059e63          	bnez	a1,2002608 <_ZN4core9panicking19assert_failed_inner17h423894f4fbad8f91E+0xc4>
 2002590:	01810513          	addi	a0,sp,24
 2002594:	02a12c23          	sw	a0,56(sp)
 2002598:	02002537          	lui	a0,0x2002
 200259c:	09450513          	addi	a0,a0,148 # 2002094 <_ZN44_$LT$$RF$T$u20$as$u20$core..fmt..Display$GT$3fmt17h9df06bddb984bfbbE>
 20025a0:	02a12e23          	sw	a0,60(sp)
 20025a4:	00810513          	addi	a0,sp,8
 20025a8:	04a12023          	sw	a0,64(sp)
 20025ac:	02002537          	lui	a0,0x2002
 20025b0:	00c50513          	addi	a0,a0,12 # 200200c <_ZN42_$LT$$RF$T$u20$as$u20$core..fmt..Debug$GT$3fmt17h740a6c06e8dbea10E>
 20025b4:	04a12223          	sw	a0,68(sp)
 20025b8:	01010593          	addi	a1,sp,16
 20025bc:	04b12423          	sw	a1,72(sp)
 20025c0:	04a12623          	sw	a0,76(sp)
 20025c4:	02003537          	lui	a0,0x2003
 20025c8:	4ac50513          	addi	a0,a0,1196 # 20034ac <.Lanon.2203139f4e9627d5c180bbdcdb8a88f3.39>
 20025cc:	04a12c23          	sw	a0,88(sp)
 20025d0:	00400513          	li	a0,4
 20025d4:	04a12e23          	sw	a0,92(sp)
 20025d8:	06012023          	sw	zero,96(sp)
 20025dc:	03810513          	addi	a0,sp,56
 20025e0:	06a12423          	sw	a0,104(sp)
 20025e4:	00300513          	li	a0,3
 20025e8:	0b80006f          	j	20026a0 <_ZN4core9panicking19assert_failed_inner17h423894f4fbad8f91E+0x15c>
 20025ec:	02003537          	lui	a0,0x2003
 20025f0:	44050513          	addi	a0,a0,1088 # 2003440 <.Lanon.2203139f4e9627d5c180bbdcdb8a88f3.30>
 20025f4:	00a12c23          	sw	a0,24(sp)
 20025f8:	00700513          	li	a0,7
 20025fc:	0007a583          	lw	a1,0(a5)
 2002600:	00a12e23          	sw	a0,28(sp)
 2002604:	f80586e3          	beqz	a1,2002590 <_ZN4core9panicking19assert_failed_inner17h423894f4fbad8f91E+0x4c>
 2002608:	0147a503          	lw	a0,20(a5)
 200260c:	0107a583          	lw	a1,16(a5)
 2002610:	02a12a23          	sw	a0,52(sp)
 2002614:	02b12823          	sw	a1,48(sp)
 2002618:	00c7a503          	lw	a0,12(a5)
 200261c:	0087a583          	lw	a1,8(a5)
 2002620:	0047a603          	lw	a2,4(a5)
 2002624:	0007a683          	lw	a3,0(a5)
 2002628:	02a12623          	sw	a0,44(sp)
 200262c:	02b12423          	sw	a1,40(sp)
 2002630:	02c12223          	sw	a2,36(sp)
 2002634:	02d12023          	sw	a3,32(sp)
 2002638:	01810513          	addi	a0,sp,24
 200263c:	02a12c23          	sw	a0,56(sp)
 2002640:	02002537          	lui	a0,0x2002
 2002644:	09450513          	addi	a0,a0,148 # 2002094 <_ZN44_$LT$$RF$T$u20$as$u20$core..fmt..Display$GT$3fmt17h9df06bddb984bfbbE>
 2002648:	02a12e23          	sw	a0,60(sp)
 200264c:	00810513          	addi	a0,sp,8
 2002650:	04a12023          	sw	a0,64(sp)
 2002654:	02002537          	lui	a0,0x2002
 2002658:	00c50513          	addi	a0,a0,12 # 200200c <_ZN42_$LT$$RF$T$u20$as$u20$core..fmt..Debug$GT$3fmt17h740a6c06e8dbea10E>
 200265c:	04a12223          	sw	a0,68(sp)
 2002660:	01010593          	addi	a1,sp,16
 2002664:	04b12423          	sw	a1,72(sp)
 2002668:	04a12623          	sw	a0,76(sp)
 200266c:	02010513          	addi	a0,sp,32
 2002670:	04a12823          	sw	a0,80(sp)
 2002674:	02001537          	lui	a0,0x2001
 2002678:	55450513          	addi	a0,a0,1364 # 2001554 <_ZN59_$LT$core..fmt..Arguments$u20$as$u20$core..fmt..Display$GT$3fmt17h5bbcc4a8f74ef85bE>
 200267c:	04a12a23          	sw	a0,84(sp)
 2002680:	02003537          	lui	a0,0x2003
 2002684:	48850513          	addi	a0,a0,1160 # 2003488 <.Lanon.2203139f4e9627d5c180bbdcdb8a88f3.37>
 2002688:	04a12c23          	sw	a0,88(sp)
 200268c:	00400513          	li	a0,4
 2002690:	04a12e23          	sw	a0,92(sp)
 2002694:	06012023          	sw	zero,96(sp)
 2002698:	03810593          	addi	a1,sp,56
 200269c:	06b12423          	sw	a1,104(sp)
 20026a0:	06a12623          	sw	a0,108(sp)
 20026a4:	05810513          	addi	a0,sp,88
 20026a8:	00080593          	mv	a1,a6
 20026ac:	00000097          	auipc	ra,0x0
 20026b0:	e5c080e7          	jalr	-420(ra) # 2002508 <_ZN4core9panicking9panic_fmt17h2f79f0b41003eeb7E>
 20026b4:	c0001073          	unimp

020026b8 <_ZN4core6result13unwrap_failed17h9f2f5272bd1199e5E>:
 20026b8:	fc010113          	addi	sp,sp,-64
 20026bc:	00a12423          	sw	a0,8(sp)
 20026c0:	00b12623          	sw	a1,12(sp)
 20026c4:	00c12823          	sw	a2,16(sp)
 20026c8:	00d12a23          	sw	a3,20(sp)
 20026cc:	00810513          	addi	a0,sp,8
 20026d0:	02a12823          	sw	a0,48(sp)
 20026d4:	02002537          	lui	a0,0x2002
 20026d8:	09450513          	addi	a0,a0,148 # 2002094 <_ZN44_$LT$$RF$T$u20$as$u20$core..fmt..Display$GT$3fmt17h9df06bddb984bfbbE>
 20026dc:	02a12a23          	sw	a0,52(sp)
 20026e0:	01010513          	addi	a0,sp,16
 20026e4:	02a12c23          	sw	a0,56(sp)
 20026e8:	02002537          	lui	a0,0x2002
 20026ec:	00c50513          	addi	a0,a0,12 # 200200c <_ZN42_$LT$$RF$T$u20$as$u20$core..fmt..Debug$GT$3fmt17h740a6c06e8dbea10E>
 20026f0:	02a12e23          	sw	a0,60(sp)
 20026f4:	02003537          	lui	a0,0x2003
 20026f8:	4ec50513          	addi	a0,a0,1260 # 20034ec <.Lanon.2470e23b193c6d4911122a51e24b5cb9.18>
 20026fc:	00a12c23          	sw	a0,24(sp)
 2002700:	00200513          	li	a0,2
 2002704:	00a12e23          	sw	a0,28(sp)
 2002708:	02012023          	sw	zero,32(sp)
 200270c:	03010593          	addi	a1,sp,48
 2002710:	02b12423          	sw	a1,40(sp)
 2002714:	02a12623          	sw	a0,44(sp)
 2002718:	01810513          	addi	a0,sp,24
 200271c:	00070593          	mv	a1,a4
 2002720:	00000097          	auipc	ra,0x0
 2002724:	de8080e7          	jalr	-536(ra) # 2002508 <_ZN4core9panicking9panic_fmt17h2f79f0b41003eeb7E>
 2002728:	c0001073          	unimp

0200272c <_ZN4core6option13expect_failed17hb975e4d0155af363E>:
 200272c:	00000097          	auipc	ra,0x0
 2002730:	00c080e7          	jalr	12(ra) # 2002738 <_ZN4core9panicking9panic_str17ha4a49a8dfb0969faE>
 2002734:	c0001073          	unimp

02002738 <_ZN4core9panicking9panic_str17ha4a49a8dfb0969faE>:
 2002738:	ff010113          	addi	sp,sp,-16
 200273c:	00a12423          	sw	a0,8(sp)
 2002740:	00b12623          	sw	a1,12(sp)
 2002744:	00810513          	addi	a0,sp,8
 2002748:	00060593          	mv	a1,a2
 200274c:	00000097          	auipc	ra,0x0
 2002750:	00c080e7          	jalr	12(ra) # 2002758 <_ZN4core9panicking13panic_display17h3654cd1c24712b71E>
 2002754:	c0001073          	unimp

02002758 <_ZN4core9panicking13panic_display17h3654cd1c24712b71E>:
 2002758:	fe010113          	addi	sp,sp,-32
 200275c:	00a12c23          	sw	a0,24(sp)
 2002760:	02002537          	lui	a0,0x2002
 2002764:	09450513          	addi	a0,a0,148 # 2002094 <_ZN44_$LT$$RF$T$u20$as$u20$core..fmt..Display$GT$3fmt17h9df06bddb984bfbbE>
 2002768:	00a12e23          	sw	a0,28(sp)
 200276c:	02003537          	lui	a0,0x2003
 2002770:	4fc50513          	addi	a0,a0,1276 # 20034fc <.Lanon.7a23e82b71577a7bc0915bb07fa28840.7>
 2002774:	00a12023          	sw	a0,0(sp)
 2002778:	00100513          	li	a0,1
 200277c:	00a12223          	sw	a0,4(sp)
 2002780:	00012423          	sw	zero,8(sp)
 2002784:	01810613          	addi	a2,sp,24
 2002788:	00c12823          	sw	a2,16(sp)
 200278c:	00a12a23          	sw	a0,20(sp)
 2002790:	00010513          	mv	a0,sp
 2002794:	00000097          	auipc	ra,0x0
 2002798:	d74080e7          	jalr	-652(ra) # 2002508 <_ZN4core9panicking9panic_fmt17h2f79f0b41003eeb7E>
 200279c:	c0001073          	unimp

020027a0 <_ZN4core3str5count14do_count_chars17h8194609739272a4dE>:
 20027a0:	00050613          	mv	a2,a0
 20027a4:	00350513          	addi	a0,a0,3
 20027a8:	ffc57813          	andi	a6,a0,-4
 20027ac:	40c80733          	sub	a4,a6,a2
 20027b0:	00e5ee63          	bltu	a1,a4,20027cc <_ZN4core3str5count14do_count_chars17h8194609739272a4dE+0x2c>
 20027b4:	40e58533          	sub	a0,a1,a4
 20027b8:	00453693          	sltiu	a3,a0,4
 20027bc:	00400793          	li	a5,4
 20027c0:	00e7b7b3          	sltu	a5,a5,a4
 20027c4:	00d7e6b3          	or	a3,a5,a3
 20027c8:	02068663          	beqz	a3,20027f4 <_ZN4core3str5count14do_count_chars17h8194609739272a4dE+0x54>
 20027cc:	00000513          	li	a0,0
 20027d0:	02058063          	beqz	a1,20027f0 <_ZN4core3str5count14do_count_chars17h8194609739272a4dE+0x50>
 20027d4:	fbf00693          	li	a3,-65
 20027d8:	00060703          	lb	a4,0(a2)
 20027dc:	00160613          	addi	a2,a2,1
 20027e0:	00e6a733          	slt	a4,a3,a4
 20027e4:	fff58593          	addi	a1,a1,-1
 20027e8:	00e50533          	add	a0,a0,a4
 20027ec:	fe0596e3          	bnez	a1,20027d8 <_ZN4core3str5count14do_count_chars17h8194609739272a4dE+0x38>
 20027f0:	00008067          	ret
 20027f4:	00357693          	andi	a3,a0,3
 20027f8:	00000793          	li	a5,0
 20027fc:	02070463          	beqz	a4,2002824 <_ZN4core3str5count14do_count_chars17h8194609739272a4dE+0x84>
 2002800:	410605b3          	sub	a1,a2,a6
 2002804:	fbf00813          	li	a6,-65
 2002808:	00060893          	mv	a7,a2
 200280c:	00088283          	lb	t0,0(a7)
 2002810:	00188893          	addi	a7,a7,1
 2002814:	005822b3          	slt	t0,a6,t0
 2002818:	00158593          	addi	a1,a1,1
 200281c:	005787b3          	add	a5,a5,t0
 2002820:	fe0596e3          	bnez	a1,200280c <_ZN4core3str5count14do_count_chars17h8194609739272a4dE+0x6c>
 2002824:	00e605b3          	add	a1,a2,a4
 2002828:	00000813          	li	a6,0
 200282c:	02068463          	beqz	a3,2002854 <_ZN4core3str5count14do_count_chars17h8194609739272a4dE+0xb4>
 2002830:	ffc57613          	andi	a2,a0,-4
 2002834:	00c58733          	add	a4,a1,a2
 2002838:	fbf00613          	li	a2,-65
 200283c:	00070883          	lb	a7,0(a4)
 2002840:	00170713          	addi	a4,a4,1
 2002844:	011628b3          	slt	a7,a2,a7
 2002848:	fff68693          	addi	a3,a3,-1
 200284c:	01180833          	add	a6,a6,a7
 2002850:	fe0696e3          	bnez	a3,200283c <_ZN4core3str5count14do_count_chars17h8194609739272a4dE+0x9c>
 2002854:	00255293          	srli	t0,a0,0x2
 2002858:	01010537          	lui	a0,0x1010
 200285c:	10150713          	addi	a4,a0,257 # 1010101 <__heap_start+0x610101>
 2002860:	00ff0537          	lui	a0,0xff0
 2002864:	0ff50613          	addi	a2,a0,255 # ff00ff <__heap_start+0x5f00ff>
 2002868:	00010537          	lui	a0,0x10
 200286c:	00150693          	addi	a3,a0,1 # 10001 <__bss_size+0xffb1>
 2002870:	00f80533          	add	a0,a6,a5
 2002874:	0340006f          	j	20028a8 <_ZN4core3str5count14do_count_chars17h8194609739272a4dE+0x108>
 2002878:	00289293          	slli	t0,a7,0x2
 200287c:	005585b3          	add	a1,a1,t0
 2002880:	411782b3          	sub	t0,a5,a7
 2002884:	0038f893          	andi	a7,a7,3
 2002888:	00c373b3          	and	t2,t1,a2
 200288c:	00835313          	srli	t1,t1,0x8
 2002890:	00c37333          	and	t1,t1,a2
 2002894:	00730333          	add	t1,t1,t2
 2002898:	02d30333          	mul	t1,t1,a3
 200289c:	01035313          	srli	t1,t1,0x10
 20028a0:	00a30533          	add	a0,t1,a0
 20028a4:	0a089863          	bnez	a7,2002954 <_ZN4core3str5count14do_count_chars17h8194609739272a4dE+0x1b4>
 20028a8:	f40284e3          	beqz	t0,20027f0 <_ZN4core3str5count14do_count_chars17h8194609739272a4dE+0x50>
 20028ac:	00028793          	mv	a5,t0
 20028b0:	0c000813          	li	a6,192
 20028b4:	00028893          	mv	a7,t0
 20028b8:	0102e463          	bltu	t0,a6,20028c0 <_ZN4core3str5count14do_count_chars17h8194609739272a4dE+0x120>
 20028bc:	0c000893          	li	a7,192
 20028c0:	0fc8f813          	andi	a6,a7,252
 20028c4:	00281293          	slli	t0,a6,0x2
 20028c8:	00558833          	add	a6,a1,t0
 20028cc:	00000313          	li	t1,0
 20028d0:	fa0284e3          	beqz	t0,2002878 <_ZN4core3str5count14do_count_chars17h8194609739272a4dE+0xd8>
 20028d4:	00058293          	mv	t0,a1
 20028d8:	0002a383          	lw	t2,0(t0)
 20028dc:	fff3ce13          	not	t3,t2
 20028e0:	007e5e13          	srli	t3,t3,0x7
 20028e4:	0063d393          	srli	t2,t2,0x6
 20028e8:	0042ae83          	lw	t4,4(t0)
 20028ec:	007e63b3          	or	t2,t3,t2
 20028f0:	00e3f3b3          	and	t2,t2,a4
 20028f4:	00638333          	add	t1,t2,t1
 20028f8:	fffec393          	not	t2,t4
 20028fc:	0073d393          	srli	t2,t2,0x7
 2002900:	006ede13          	srli	t3,t4,0x6
 2002904:	0082ae83          	lw	t4,8(t0)
 2002908:	01c3e3b3          	or	t2,t2,t3
 200290c:	00e3f3b3          	and	t2,t2,a4
 2002910:	00638333          	add	t1,t2,t1
 2002914:	fffec393          	not	t2,t4
 2002918:	0073d393          	srli	t2,t2,0x7
 200291c:	006ede13          	srli	t3,t4,0x6
 2002920:	00c2ae83          	lw	t4,12(t0)
 2002924:	01c3e3b3          	or	t2,t2,t3
 2002928:	00e3f3b3          	and	t2,t2,a4
 200292c:	00638333          	add	t1,t2,t1
 2002930:	fffec393          	not	t2,t4
 2002934:	0073d393          	srli	t2,t2,0x7
 2002938:	006ede13          	srli	t3,t4,0x6
 200293c:	01c3e3b3          	or	t2,t2,t3
 2002940:	00e3f3b3          	and	t2,t2,a4
 2002944:	01028293          	addi	t0,t0,16
 2002948:	00638333          	add	t1,t2,t1
 200294c:	f90296e3          	bne	t0,a6,20028d8 <_ZN4core3str5count14do_count_chars17h8194609739272a4dE+0x138>
 2002950:	f29ff06f          	j	2002878 <_ZN4core3str5count14do_count_chars17h8194609739272a4dE+0xd8>
 2002954:	0c000593          	li	a1,192
 2002958:	00b7e463          	bltu	a5,a1,2002960 <_ZN4core3str5count14do_count_chars17h8194609739272a4dE+0x1c0>
 200295c:	0c000793          	li	a5,192
 2002960:	00000593          	li	a1,0
 2002964:	0037f793          	andi	a5,a5,3
 2002968:	00279793          	slli	a5,a5,0x2
 200296c:	00082883          	lw	a7,0(a6)
 2002970:	00480813          	addi	a6,a6,4
 2002974:	fff8c293          	not	t0,a7
 2002978:	0072d293          	srli	t0,t0,0x7
 200297c:	0068d893          	srli	a7,a7,0x6
 2002980:	0112e8b3          	or	a7,t0,a7
 2002984:	00e8f8b3          	and	a7,a7,a4
 2002988:	ffc78793          	addi	a5,a5,-4
 200298c:	00b885b3          	add	a1,a7,a1
 2002990:	fc079ee3          	bnez	a5,200296c <_ZN4core3str5count14do_count_chars17h8194609739272a4dE+0x1cc>
 2002994:	00c5f733          	and	a4,a1,a2
 2002998:	0085d593          	srli	a1,a1,0x8
 200299c:	00c5f5b3          	and	a1,a1,a2
 20029a0:	00e585b3          	add	a1,a1,a4
 20029a4:	02d585b3          	mul	a1,a1,a3
 20029a8:	0105d593          	srli	a1,a1,0x10
 20029ac:	00a58533          	add	a0,a1,a0
 20029b0:	00008067          	ret

020029b4 <_ZN4core5slice5index26slice_start_index_len_fail17h788b329c729665e0E>:
 20029b4:	00000097          	auipc	ra,0x0
 20029b8:	90c080e7          	jalr	-1780(ra) # 20022c0 <_ZN4core10intrinsics17const_eval_select17hf16e48560096d238E>
 20029bc:	c0001073          	unimp

020029c0 <_ZN4core5slice5index29slice_start_index_len_fail_rt17h13f31fd0de6a3710E>:
 20029c0:	fd010113          	addi	sp,sp,-48
 20029c4:	00a12023          	sw	a0,0(sp)
 20029c8:	00b12223          	sw	a1,4(sp)
 20029cc:	00010513          	mv	a0,sp
 20029d0:	02a12023          	sw	a0,32(sp)
 20029d4:	02002537          	lui	a0,0x2002
 20029d8:	26c50513          	addi	a0,a0,620 # 200226c <_ZN4core3fmt3num3imp52_$LT$impl$u20$core..fmt..Display$u20$for$u20$u32$GT$3fmt17h7dc147fbf5c515fcE>
 20029dc:	02a12223          	sw	a0,36(sp)
 20029e0:	00410593          	addi	a1,sp,4
 20029e4:	02b12423          	sw	a1,40(sp)
 20029e8:	02a12623          	sw	a0,44(sp)
 20029ec:	02003537          	lui	a0,0x2003
 20029f0:	53850513          	addi	a0,a0,1336 # 2003538 <anon.21be27dcbcfea609e6fb5c090ac782fb.16.llvm.13982520288002575779>
 20029f4:	00a12423          	sw	a0,8(sp)
 20029f8:	00200513          	li	a0,2
 20029fc:	00a12623          	sw	a0,12(sp)
 2002a00:	00012823          	sw	zero,16(sp)
 2002a04:	02010593          	addi	a1,sp,32
 2002a08:	00b12c23          	sw	a1,24(sp)
 2002a0c:	00a12e23          	sw	a0,28(sp)
 2002a10:	02003537          	lui	a0,0x2003
 2002a14:	60450593          	addi	a1,a0,1540 # 2003604 <anon.21be27dcbcfea609e6fb5c090ac782fb.18.llvm.13982520288002575779>
 2002a18:	00810513          	addi	a0,sp,8
 2002a1c:	00000097          	auipc	ra,0x0
 2002a20:	aec080e7          	jalr	-1300(ra) # 2002508 <_ZN4core9panicking9panic_fmt17h2f79f0b41003eeb7E>
 2002a24:	c0001073          	unimp

02002a28 <_ZN4core5slice5index24slice_end_index_len_fail17h48ec9d596c6021f4E>:
 2002a28:	00000097          	auipc	ra,0x0
 2002a2c:	88c080e7          	jalr	-1908(ra) # 20022b4 <_ZN4core10intrinsics17const_eval_select17h830a34504e58e206E>
 2002a30:	c0001073          	unimp

02002a34 <_ZN4core5slice5index27slice_end_index_len_fail_rt17hb41445c4e583962fE>:
 2002a34:	fd010113          	addi	sp,sp,-48
 2002a38:	00a12023          	sw	a0,0(sp)
 2002a3c:	00b12223          	sw	a1,4(sp)
 2002a40:	00010513          	mv	a0,sp
 2002a44:	02a12023          	sw	a0,32(sp)
 2002a48:	02002537          	lui	a0,0x2002
 2002a4c:	26c50513          	addi	a0,a0,620 # 200226c <_ZN4core3fmt3num3imp52_$LT$impl$u20$core..fmt..Display$u20$for$u20$u32$GT$3fmt17h7dc147fbf5c515fcE>
 2002a50:	02a12223          	sw	a0,36(sp)
 2002a54:	00410593          	addi	a1,sp,4
 2002a58:	02b12423          	sw	a1,40(sp)
 2002a5c:	02a12623          	sw	a0,44(sp)
 2002a60:	02003537          	lui	a0,0x2003
 2002a64:	61450513          	addi	a0,a0,1556 # 2003614 <anon.21be27dcbcfea609e6fb5c090ac782fb.23.llvm.13982520288002575779>
 2002a68:	00a12423          	sw	a0,8(sp)
 2002a6c:	00200513          	li	a0,2
 2002a70:	00a12623          	sw	a0,12(sp)
 2002a74:	00012823          	sw	zero,16(sp)
 2002a78:	02010593          	addi	a1,sp,32
 2002a7c:	00b12c23          	sw	a1,24(sp)
 2002a80:	00a12e23          	sw	a0,28(sp)
 2002a84:	02003537          	lui	a0,0x2003
 2002a88:	62450593          	addi	a1,a0,1572 # 2003624 <anon.21be27dcbcfea609e6fb5c090ac782fb.24.llvm.13982520288002575779>
 2002a8c:	00810513          	addi	a0,sp,8
 2002a90:	00000097          	auipc	ra,0x0
 2002a94:	a78080e7          	jalr	-1416(ra) # 2002508 <_ZN4core9panicking9panic_fmt17h2f79f0b41003eeb7E>
 2002a98:	c0001073          	unimp

02002a9c <_ZN4core5slice5index22slice_index_order_fail17h42d4f5304e09dd2bE>:
 2002a9c:	00000097          	auipc	ra,0x0
 2002aa0:	80c080e7          	jalr	-2036(ra) # 20022a8 <_ZN4core10intrinsics17const_eval_select17h67686a7108bd15e2E>
 2002aa4:	c0001073          	unimp

02002aa8 <_ZN4core5slice5index25slice_index_order_fail_rt17hc72d1d9b94b09053E>:
 2002aa8:	fd010113          	addi	sp,sp,-48
 2002aac:	00a12023          	sw	a0,0(sp)
 2002ab0:	00b12223          	sw	a1,4(sp)
 2002ab4:	00010513          	mv	a0,sp
 2002ab8:	02a12023          	sw	a0,32(sp)
 2002abc:	02002537          	lui	a0,0x2002
 2002ac0:	26c50513          	addi	a0,a0,620 # 200226c <_ZN4core3fmt3num3imp52_$LT$impl$u20$core..fmt..Display$u20$for$u20$u32$GT$3fmt17h7dc147fbf5c515fcE>
 2002ac4:	02a12223          	sw	a0,36(sp)
 2002ac8:	00410593          	addi	a1,sp,4
 2002acc:	02b12423          	sw	a1,40(sp)
 2002ad0:	02a12623          	sw	a0,44(sp)
 2002ad4:	02003537          	lui	a0,0x2003
 2002ad8:	65850513          	addi	a0,a0,1624 # 2003658 <anon.21be27dcbcfea609e6fb5c090ac782fb.30.llvm.13982520288002575779>
 2002adc:	00a12423          	sw	a0,8(sp)
 2002ae0:	00200513          	li	a0,2
 2002ae4:	00a12623          	sw	a0,12(sp)
 2002ae8:	00012823          	sw	zero,16(sp)
 2002aec:	02010593          	addi	a1,sp,32
 2002af0:	00b12c23          	sw	a1,24(sp)
 2002af4:	00a12e23          	sw	a0,28(sp)
 2002af8:	02003537          	lui	a0,0x2003
 2002afc:	66850593          	addi	a1,a0,1640 # 2003668 <anon.21be27dcbcfea609e6fb5c090ac782fb.31.llvm.13982520288002575779>
 2002b00:	00810513          	addi	a0,sp,8
 2002b04:	00000097          	auipc	ra,0x0
 2002b08:	a04080e7          	jalr	-1532(ra) # 2002508 <_ZN4core9panicking9panic_fmt17h2f79f0b41003eeb7E>
 2002b0c:	c0001073          	unimp

02002b10 <memcpy>:
 2002b10:	00000317          	auipc	t1,0x0
 2002b14:	01030067          	jr	16(t1) # 2002b20 <_ZN17compiler_builtins3mem6memcpy17hc2d646a38e2eb0edE>

02002b18 <memset>:
 2002b18:	00000317          	auipc	t1,0x0
 2002b1c:	0ec30067          	jr	236(t1) # 2002c04 <_ZN17compiler_builtins3mem6memset17h62ee0c1160afff4dE>

02002b20 <_ZN17compiler_builtins3mem6memcpy17hc2d646a38e2eb0edE>:
 2002b20:	00f00693          	li	a3,15
 2002b24:	08c6f863          	bgeu	a3,a2,2002bb4 <_ZN17compiler_builtins3mem6memcpy17hc2d646a38e2eb0edE+0x94>
 2002b28:	40a006b3          	neg	a3,a0
 2002b2c:	0036f693          	andi	a3,a3,3
 2002b30:	00d50733          	add	a4,a0,a3
 2002b34:	02068063          	beqz	a3,2002b54 <_ZN17compiler_builtins3mem6memcpy17hc2d646a38e2eb0edE+0x34>
 2002b38:	00050793          	mv	a5,a0
 2002b3c:	00058813          	mv	a6,a1
 2002b40:	00080883          	lb	a7,0(a6)
 2002b44:	01178023          	sb	a7,0(a5)
 2002b48:	00178793          	addi	a5,a5,1
 2002b4c:	00180813          	addi	a6,a6,1
 2002b50:	fee7e8e3          	bltu	a5,a4,2002b40 <_ZN17compiler_builtins3mem6memcpy17hc2d646a38e2eb0edE+0x20>
 2002b54:	00d585b3          	add	a1,a1,a3
 2002b58:	40d60633          	sub	a2,a2,a3
 2002b5c:	ffc67793          	andi	a5,a2,-4
 2002b60:	0035f813          	andi	a6,a1,3
 2002b64:	00f706b3          	add	a3,a4,a5
 2002b68:	04080c63          	beqz	a6,2002bc0 <_ZN17compiler_builtins3mem6memcpy17hc2d646a38e2eb0edE+0xa0>
 2002b6c:	06f05863          	blez	a5,2002bdc <_ZN17compiler_builtins3mem6memcpy17hc2d646a38e2eb0edE+0xbc>
 2002b70:	00359893          	slli	a7,a1,0x3
 2002b74:	0188f813          	andi	a6,a7,24
 2002b78:	ffc5f293          	andi	t0,a1,-4
 2002b7c:	0002a303          	lw	t1,0(t0)
 2002b80:	411008b3          	neg	a7,a7
 2002b84:	0188f893          	andi	a7,a7,24
 2002b88:	00428293          	addi	t0,t0,4
 2002b8c:	0002a383          	lw	t2,0(t0)
 2002b90:	01035333          	srl	t1,t1,a6
 2002b94:	01139e33          	sll	t3,t2,a7
 2002b98:	006e6333          	or	t1,t3,t1
 2002b9c:	00672023          	sw	t1,0(a4)
 2002ba0:	00470713          	addi	a4,a4,4
 2002ba4:	00428293          	addi	t0,t0,4
 2002ba8:	00038313          	mv	t1,t2
 2002bac:	fed760e3          	bltu	a4,a3,2002b8c <_ZN17compiler_builtins3mem6memcpy17hc2d646a38e2eb0edE+0x6c>
 2002bb0:	02c0006f          	j	2002bdc <_ZN17compiler_builtins3mem6memcpy17hc2d646a38e2eb0edE+0xbc>
 2002bb4:	00050693          	mv	a3,a0
 2002bb8:	02061863          	bnez	a2,2002be8 <_ZN17compiler_builtins3mem6memcpy17hc2d646a38e2eb0edE+0xc8>
 2002bbc:	0440006f          	j	2002c00 <_ZN17compiler_builtins3mem6memcpy17hc2d646a38e2eb0edE+0xe0>
 2002bc0:	00f05e63          	blez	a5,2002bdc <_ZN17compiler_builtins3mem6memcpy17hc2d646a38e2eb0edE+0xbc>
 2002bc4:	00058813          	mv	a6,a1
 2002bc8:	00082883          	lw	a7,0(a6)
 2002bcc:	01172023          	sw	a7,0(a4)
 2002bd0:	00470713          	addi	a4,a4,4
 2002bd4:	00480813          	addi	a6,a6,4
 2002bd8:	fed768e3          	bltu	a4,a3,2002bc8 <_ZN17compiler_builtins3mem6memcpy17hc2d646a38e2eb0edE+0xa8>
 2002bdc:	00f585b3          	add	a1,a1,a5
 2002be0:	00367613          	andi	a2,a2,3
 2002be4:	00060e63          	beqz	a2,2002c00 <_ZN17compiler_builtins3mem6memcpy17hc2d646a38e2eb0edE+0xe0>
 2002be8:	00c68633          	add	a2,a3,a2
 2002bec:	00058703          	lb	a4,0(a1)
 2002bf0:	00e68023          	sb	a4,0(a3)
 2002bf4:	00168693          	addi	a3,a3,1
 2002bf8:	00158593          	addi	a1,a1,1
 2002bfc:	fec6e8e3          	bltu	a3,a2,2002bec <_ZN17compiler_builtins3mem6memcpy17hc2d646a38e2eb0edE+0xcc>
 2002c00:	00008067          	ret

02002c04 <_ZN17compiler_builtins3mem6memset17h62ee0c1160afff4dE>:
 2002c04:	00f00693          	li	a3,15
 2002c08:	04c6fe63          	bgeu	a3,a2,2002c64 <_ZN17compiler_builtins3mem6memset17h62ee0c1160afff4dE+0x60>
 2002c0c:	40a006b3          	neg	a3,a0
 2002c10:	0036f693          	andi	a3,a3,3
 2002c14:	00d50733          	add	a4,a0,a3
 2002c18:	00068a63          	beqz	a3,2002c2c <_ZN17compiler_builtins3mem6memset17h62ee0c1160afff4dE+0x28>
 2002c1c:	00050793          	mv	a5,a0
 2002c20:	00b78023          	sb	a1,0(a5)
 2002c24:	00178793          	addi	a5,a5,1
 2002c28:	fee7ece3          	bltu	a5,a4,2002c20 <_ZN17compiler_builtins3mem6memset17h62ee0c1160afff4dE+0x1c>
 2002c2c:	40d60633          	sub	a2,a2,a3
 2002c30:	ffc67793          	andi	a5,a2,-4
 2002c34:	00f706b3          	add	a3,a4,a5
 2002c38:	02f05063          	blez	a5,2002c58 <_ZN17compiler_builtins3mem6memset17h62ee0c1160afff4dE+0x54>
 2002c3c:	0ff5f793          	andi	a5,a1,255
 2002c40:	01010837          	lui	a6,0x1010
 2002c44:	10180813          	addi	a6,a6,257 # 1010101 <__heap_start+0x610101>
 2002c48:	030787b3          	mul	a5,a5,a6
 2002c4c:	00f72023          	sw	a5,0(a4)
 2002c50:	00470713          	addi	a4,a4,4
 2002c54:	fed76ce3          	bltu	a4,a3,2002c4c <_ZN17compiler_builtins3mem6memset17h62ee0c1160afff4dE+0x48>
 2002c58:	00367613          	andi	a2,a2,3
 2002c5c:	00061863          	bnez	a2,2002c6c <_ZN17compiler_builtins3mem6memset17h62ee0c1160afff4dE+0x68>
 2002c60:	01c0006f          	j	2002c7c <_ZN17compiler_builtins3mem6memset17h62ee0c1160afff4dE+0x78>
 2002c64:	00050693          	mv	a3,a0
 2002c68:	00060a63          	beqz	a2,2002c7c <_ZN17compiler_builtins3mem6memset17h62ee0c1160afff4dE+0x78>
 2002c6c:	00c68633          	add	a2,a3,a2
 2002c70:	00b68023          	sb	a1,0(a3)
 2002c74:	00168693          	addi	a3,a3,1
 2002c78:	fec6ece3          	bltu	a3,a2,2002c70 <_ZN17compiler_builtins3mem6memset17h62ee0c1160afff4dE+0x6c>
 2002c7c:	00008067          	ret

02002c80 <anon.ad9603a55ed4bb67655d95fa3ca6f0ee.0.llvm.5690797283130860114>:
 2002c80:	6d6f682f 616d2f65 65722f75 2f736f70     /home/mau/repos/
 2002c90:	63736972 69722f30 2f306373 6d766b7a     risc0/risc0/zkvm
 2002ca0:	6b64732f 7375722f 75672f74 2f747365     /sdk/rust/guest/
 2002cb0:	2f637273 2e766e65 00007372              src/env.rs..

02002cbc <anon.ad9603a55ed4bb67655d95fa3ca6f0ee.1.llvm.5690797283130860114>:
 2002cbc:	02002c80 0000003a 000000b3 0000002a     .,..:.......*...

02002ccc <anon.ad9603a55ed4bb67655d95fa3ca6f0ee.2.llvm.5690797283130860114>:
 2002ccc:	02002c80 0000003a 000000b4 00000029     .,..:.......)...

02002cdc <anon.ad9603a55ed4bb67655d95fa3ca6f0ee.3.llvm.5690797283130860114>:
 2002cdc:	02002c80 0000003a 00000032 00000025     .,..:...2...%...

02002cec <anon.ad9603a55ed4bb67655d95fa3ca6f0ee.4.llvm.5690797283130860114>:
 2002cec:	6c6c6163 60206465 75736552 3a3a746c     called `Result::
 2002cfc:	72776e75 29287061 6e6f2060 206e6120     unwrap()` on an 
 2002d0c:	72724560 61762060 0065756c              `Err` value.

02002d18 <anon.ad9603a55ed4bb67655d95fa3ca6f0ee.5.llvm.5690797283130860114>:
 2002d18:	02000220 00000001 00000001 02000bd0      ...............

02002d28 <.Lanon.b0cf36cc0b98861197cc79eb9e758305.1>:
 2002d28:	76697254 206c6169 74636166 0073726f     Trivial factors.

02002d38 <.Lanon.b0cf36cc0b98861197cc79eb9e758305.2>:
 2002d38:	02002d28 0000000f                       (-......

02002d40 <.Lanon.b0cf36cc0b98861197cc79eb9e758305.3>:
 2002d40:	2f637273 2f6e6962 746c756d 796c7069     src/bin/multiply
 2002d50:	0073722e                                .rs.

02002d54 <.Lanon.b0cf36cc0b98861197cc79eb9e758305.4>:
 2002d54:	02002d40 00000013 0000000f 00000009     @-..............
 2002d64:	65746e49 20726567 7265766f 776f6c66     Integer overflow

02002d74 <anon.21be27dcbcfea609e6fb5c090ac782fb.22.llvm.13982520288002575779>:
 2002d74:	676e6172 6e652065 6e692064 20786564     range end index 

02002d84 <.Lanon.b0cf36cc0b98861197cc79eb9e758305.6>:
 2002d84:	02002d40 00000013 00000012 00000024     @-..........$...

02002d94 <anon.d73996fa1028e07f6fa931ef6ab18918.0.llvm.13258347182913583307>:
 2002d94:	6d6f682f 616d2f65 65722f75 2f736f70     /home/mau/repos/
 2002da4:	63736972 69722f30 2f306373 6d766b7a     risc0/risc0/zkvm
 2002db4:	6b64732f 7375722f 75672f74 2f747365     /sdk/rust/guest/
 2002dc4:	2f637273 2e766e65 00007372              src/env.rs..

02002dd0 <.Lanon.d73996fa1028e07f6fa931ef6ab18918.4>:
 2002dd0:	02002d94 0000003a 0000009d 0000000a     .-..:...........

02002de0 <anon.d73996fa1028e07f6fa931ef6ab18918.6.llvm.13258347182913583307>:
 2002de0:	02002d94 0000003a 000000de 00000022     .-..:......."...

02002df0 <anon.5631d3a3d55ce77f2597f20e6d4ec83e.1.llvm.11067264371534210133>:
 2002df0:	00000000                                ....

02002df4 <anon.5631d3a3d55ce77f2597f20e6d4ec83e.2.llvm.11067264371534210133>:
 2002df4:	6d6f682f 616d2f65 65722f75 2f736f70     /home/mau/repos/
 2002e04:	63736972 69722f30 2f306373 6d766b7a     risc0/risc0/zkvm
 2002e14:	6b64732f 7375722f 75672f74 2f747365     /sdk/rust/guest/
 2002e24:	2f637273 2e616873 00007372              src/sha.rs..

02002e30 <anon.5631d3a3d55ce77f2597f20e6d4ec83e.5.llvm.11067264371534210133>:
 2002e30:	02002df4 0000003a 00000067 00000005     .-..:...g.......

02002e40 <anon.5631d3a3d55ce77f2597f20e6d4ec83e.6.llvm.11067264371534210133>:
 2002e40:	02002df4 0000003a 0000006d 0000000d     .-..:...m.......

02002e50 <anon.5631d3a3d55ce77f2597f20e6d4ec83e.7.llvm.11067264371534210133>:
 2002e50:	02002df4 0000003a 0000006f 0000000d     .-..:...o.......

02002e60 <anon.5631d3a3d55ce77f2597f20e6d4ec83e.8.llvm.11067264371534210133>:
 2002e60:	02002df4 0000003a 00000075 0000000d     .-..:...u.......

02002e70 <anon.5631d3a3d55ce77f2597f20e6d4ec83e.9.llvm.11067264371534210133>:
 2002e70:	02002df4 0000003a 0000007a 00000005     .-..:...z.......

02002e80 <anon.c359eb7203179d117619283b0de98f92.0.llvm.5664053378227374743>:
 2002e80:	0200083c 00000004 00000004 02000b38     <...........8...

02002e90 <.Lanon.740d60a687a3cdeded2a631a5ce0e880.0>:
 2002e90:	6c6c6163 60206465 6974704f 3a3a6e6f     called `Option::
 2002ea0:	72776e75 29287061 6e6f2060 60206120     unwrap()` on a `
 2002eb0:	656e6f4e 61762060                        None` value

02002ebb <.Lanon.740d60a687a3cdeded2a631a5ce0e880.1>:
 2002ebb:	6d6f682f 616d2f65 65722f75 2f736f70     /home/mau/repos/
 2002ecb:	63736972 69722f30 2f306373 6d766b7a     risc0/risc0/zkvm
 2002edb:	6b64732f 7375722f 75672f74 2f747365     /sdk/rust/guest/
 2002eeb:	2f637273 6f6c6c61 73722e63               src/alloc.rs.

02002ef8 <.Lanon.740d60a687a3cdeded2a631a5ce0e880.2>:
 2002ef8:	02002ebb 0000003c 00000026 00000040     ....<...&...@...

02002f08 <.Lanon.bf9ac6c14cc51cdf0e31e5a7e9b3bf07.1>:
 2002f08:	00000000                                ....

02002f0c <.Lanon.bf9ac6c14cc51cdf0e31e5a7e9b3bf07.2>:
 2002f0c:	02002f08 00000000 02002f08 00000001     ./......./......

02002f1c <.LJTI2_0>:
 2002f1c:	0bf0                	addi	a2,sp,476
 2002f1e:	0200                	addi	s0,sp,256
 2002f20:	0c04                	addi	s1,sp,528
 2002f22:	0200                	addi	s0,sp,256
 2002f24:	0c18                	addi	a4,sp,528
 2002f26:	0200                	addi	s0,sp,256
 2002f28:	0c2c                	addi	a1,sp,536
 2002f2a:	0200                	addi	s0,sp,256
 2002f2c:	0c40                	addi	s0,sp,532
 2002f2e:	0200                	addi	s0,sp,256
 2002f30:	0c54                	addi	a3,sp,532
 2002f32:	0200                	addi	s0,sp,256
 2002f34:	0c68                	addi	a0,sp,540
 2002f36:	0200                	addi	s0,sp,256

02002f38 <.Lanon.e9a87e92473d7171a211d0e5ecffeee5.7>:
 2002f38:	6553 6972 6c61 7a69 4265 6675 6566 4672     SerializeBufferF
 2002f48:	6c75                                         ull

02002f4b <.Lanon.e9a87e92473d7171a211d0e5ecffeee5.8>:
 2002f4b:	6f4e 5374 7075 6f70 7472 6465               NotSupported

02002f57 <.Lanon.e9a87e92473d7171a211d0e5ecffeee5.9>:
 2002f57:	6544 6573 6972 6c61 7a69 5565 656e 7078     DeserializeUnexp
 2002f67:	6365 6574 4564 646e                         ectedEnd

02002f6f <.Lanon.e9a87e92473d7171a211d0e5ecffeee5.10>:
 2002f6f:	6544 6573 6972 6c61 7a69 4265 6461 7455     DeserializeBadUt
 2002f7f:	3866                                        f8

02002f81 <.Lanon.e9a87e92473d7171a211d0e5ecffeee5.11>:
 2002f81:	6544 6573 6972 6c61 7a69 4265 6461 704f     DeserializeBadOp
 2002f91:	6974 6e6f                                   tion

02002f95 <.Lanon.e9a87e92473d7171a211d0e5ecffeee5.12>:
 2002f95:	6544 6573 6972 6c61 7a69 4265 6461 6843     DeserializeBadCh
 2002fa5:	7261                                        ar

02002fa7 <.Lanon.e9a87e92473d7171a211d0e5ecffeee5.13>:
 2002fa7:	6544 6573 6972 6c61 7a69 4265 6461 6f42     DeserializeBadBo
 2002fb7:	6c6f                                        ol

02002fb9 <.Lanon.6eb67bcd4bda5f0b30bfb5494c16939d.0>:
 2002fb9:	7361 6573 7472 6f69 206e 6166 6c69 6465     assertion failed
 2002fc9:	203a 696d 2064 3d3c 7320 6c65 2e66 656c     : mid <= self.le
 2002fd9:	286e                                         n()

02002fdc <.Lanon.6eb67bcd4bda5f0b30bfb5494c16939d.1>:
 2002fdc:	682f 6d6f 2f65 616d 2f75 6572 6f70 2f73     /home/mau/repos/
 2002fec:	6972 6373 2f30 6972 6373 2f30 6b7a 6d76     risc0/risc0/zkvm
 2002ffc:	732f 6b64 722f 7375 2f74 6573 6472 2f65     /sdk/rust/serde/
 200300c:	7273 2f63 6573 6972 6c61 7a69 7265 722e     src/serializer.r
 200301c:	0073 0000                                   s...

02003020 <.Lanon.6eb67bcd4bda5f0b30bfb5494c16939d.5>:
 2003020:	2fdc 0200 0041 0000 01b5 0000 0020 0000     ./..A....... ...

02003030 <anon.e6f9b7edf4a74adf74c0f4d9f616b85b.1.llvm.702291895030451100>:
 2003030:	682f 6d6f 2f65 616d 2f75 6572 6f70 2f73     /home/mau/repos/
 2003040:	6972 6373 2d30 7572 7473 732d 6174 7472     risc0-rust-start
 2003050:	7265 742f 7261 6567 2f74 6564 7562 2f67     er/target/debug/
 2003060:	7562 6c69 2f64 656d 6874 646f 2d73 3137     build/methods-71
 2003070:	3836 3431 6361 3061 3933 3331 3865 6f2f     6814aca03913e8/o
 2003080:	7475 722f 7375 2d74 7473 5f64 3335 3439     ut/rust-std_5394
 2003090:	3739 6536 6233 3565 3263 6266 3965 3035     976e3be5c2fbe950
 20030a0:	3466 6631 3537 6265 3933 6332 3864 3838     f41f75eb392cd888
 20030b0:	3536 3937 3333 3236 3539 3434 3065 3561     657933629544e0a5
 20030c0:	6135 3537 6262 6530 3935 3964 6c2f 6269     5a75bb0e59d9/lib
 20030d0:	6172 7972 612f 6c6c 636f 732f 6372 722f     rary/alloc/src/r
 20030e0:	7761 765f 6365 722e                          aw_vec.rs

020030e9 <anon.e6f9b7edf4a74adf74c0f4d9f616b85b.5.llvm.702291895030451100>:
 20030e9:	6163 6170 6963 7974 6f20 6576 6672 6f6c     capacity overflo
 20030f9:	0077                                         w..

020030fc <anon.e6f9b7edf4a74adf74c0f4d9f616b85b.6.llvm.702291895030451100>:
 20030fc:	30e9 0200 0011 0000                         .0......

02003104 <anon.e6f9b7edf4a74adf74c0f4d9f616b85b.7.llvm.702291895030451100>:
 2003104:	3030 0200 00b9 0000 0205 0000 0005 0000     00..............

02003114 <.Lanon.8f792f70b1c60a6af53f1ad872701d5a.0>:
 2003114:	1034 0200 0000 0000 0001 0000 1ff0 0200     4...............

02003124 <.Lanon.8f792f70b1c60a6af53f1ad872701d5a.1>:
 2003124:	2061 6f66 6d72 7461 6974 676e 7420 6172     a formatting tra
 2003134:	7469 6920 706d 656c 656d 746e 7461 6f69     it implementatio
 2003144:	206e 6572 7574 6e72 6465 6120 206e 7265     n returned an er
 2003154:	6f72                                         ror

02003157 <.Lanon.8f792f70b1c60a6af53f1ad872701d5a.2>:
 2003157:	682f 6d6f 2f65 616d 2f75 6572 6f70 2f73     /home/mau/repos/
 2003167:	6972 6373 2d30 7572 7473 732d 6174 7472     risc0-rust-start
 2003177:	7265 742f 7261 6567 2f74 6564 7562 2f67     er/target/debug/
 2003187:	7562 6c69 2f64 656d 6874 646f 2d73 3137     build/methods-71
 2003197:	3836 3431 6361 3061 3933 3331 3865 6f2f     6814aca03913e8/o
 20031a7:	7475 722f 7375 2d74 7473 5f64 3335 3439     ut/rust-std_5394
 20031b7:	3739 6536 6233 3565 3263 6266 3965 3035     976e3be5c2fbe950
 20031c7:	3466 6631 3537 6265 3933 6332 3864 3838     f41f75eb392cd888
 20031d7:	3536 3937 3333 3236 3539 3434 3065 3561     657933629544e0a5
 20031e7:	6135 3537 6262 6530 3935 3964 6c2f 6269     5a75bb0e59d9/lib
 20031f7:	6172 7972 612f 6c6c 636f 732f 6372 662f     rary/alloc/src/f
 2003207:	746d 722e                                    mt.rs

0200320c <.Lanon.8f792f70b1c60a6af53f1ad872701d5a.3>:
 200320c:	3157 0200 00b5 0000 0264 0000 0020 0000     W1......d... ...

0200321c <anon.ca9571c3901ab8718e63aaa14e354a67.0.llvm.1327047209503677285>:
 200321c:	1194 0200 0004 0000 0004 0000 135c 0200     ............\...
 200322c:	1198 0200 12f8 0200                         ........

02003234 <anon.c51e510c33fdcff7e0fba59f411f82da.0.llvm.5083173684601433623>:
 2003234:	682f 6d6f 2f65 616d 2f75 6572 6f70 2f73     /home/mau/repos/
 2003244:	6972 6373 2d30 7572 7473 732d 6174 7472     risc0-rust-start
 2003254:	7265 742f 7261 6567 2f74 6564 7562 2f67     er/target/debug/
 2003264:	7562 6c69 2f64 656d 6874 646f 2d73 3137     build/methods-71
 2003274:	3836 3431 6361 3061 3933 3331 3865 6f2f     6814aca03913e8/o
 2003284:	7475 722f 7375 2d74 7473 5f64 3335 3439     ut/rust-std_5394
 2003294:	3739 6536 6233 3565 3263 6266 3965 3035     976e3be5c2fbe950
 20032a4:	3466 6631 3537 6265 3933 6332 3864 3838     f41f75eb392cd888
 20032b4:	3536 3937 3333 3236 3539 3434 3065 3561     657933629544e0a5
 20032c4:	6135 3537 6262 6530 3935 3964 6c2f 6269     5a75bb0e59d9/lib
 20032d4:	6172 7972 632f 726f 2f65 7273 2f63 6d66     rary/core/src/fm
 20032e4:	2f74 756e 2e6d 7372                         t/num.rs

020032ec <anon.c51e510c33fdcff7e0fba59f411f82da.1.llvm.5083173684601433623>:
 20032ec:	3234 0200 00b8 0000 0065 0000 0014 0000     42......e.......

020032fc <anon.c51e510c33fdcff7e0fba59f411f82da.4.llvm.5083173684601433623>:
 20032fc:	7830                                        0x

020032fe <anon.c51e510c33fdcff7e0fba59f411f82da.5.llvm.5083173684601433623>:
 20032fe:	3030 3130 3230 3330 3430 3530 3630 3730     0001020304050607
 200330e:	3830 3930 3031 3131 3231 3331 3431 3531     0809101112131415
 200331e:	3631 3731 3831 3931 3032 3132 3232 3332     1617181920212223
 200332e:	3432 3532 3632 3732 3832 3932 3033 3133     2425262728293031
 200333e:	3233 3333 3433 3533 3633 3733 3833 3933     3233343536373839
 200334e:	3034 3134 3234 3334 3434 3534 3634 3734     4041424344454647
 200335e:	3834 3934 3035 3135 3235 3335 3435 3535     4849505152535455
 200336e:	3635 3735 3835 3935 3036 3136 3236 3336     5657585960616263
 200337e:	3436 3536 3636 3736 3836 3936 3037 3137     6465666768697071
 200338e:	3237 3337 3437 3537 3637 3737 3837 3937     7273747576777879
 200339e:	3038 3138 3238 3338 3438 3538 3638 3738     8081828384858687
 20033ae:	3838 3938 3039 3139 3239 3339 3439 3539     8889909192939495
 20033be:	3639 3739 3839 3939                         96979899

020033c6 <.Lanon.22c43593289ff1ba4784f41adbe21c29.18>:
 20033c6:	7245 6f72                                    Error

020033cb <.Lanon.22b908e0efc481e29f43de9869fcdc20.0>:
	...

020033cc <.Lanon.2203139f4e9627d5c180bbdcdb8a88f3.13>:
 20033cc:	22a4 0200 0000 0000 0001 0000 22cc 0200     ."..........."..

020033dc <.Lanon.2203139f4e9627d5c180bbdcdb8a88f3.14>:
 20033dc:	6170 696e 6b63 6465 6120 2074               panicked at 

020033e8 <.Lanon.2203139f4e9627d5c180bbdcdb8a88f3.15>:
 20033e8:	                                             '

020033e9 <.Lanon.2203139f4e9627d5c180bbdcdb8a88f3.16>:
 20033e9:	2c27                                         ', 

020033ec <.Lanon.2203139f4e9627d5c180bbdcdb8a88f3.17>:
 20033ec:	33e8 0200 0001 0000 33e9 0200 0003 0000     .3.......3......
 20033fc:	6e69 6564 2078 756f 2074 666f 6220 756f     index out of bou
 200340c:	646e 3a73 7420 6568 6c20 6e65 6920 2073     nds: the len is 

0200341c <.Lanon.2203139f4e9627d5c180bbdcdb8a88f3.20>:
 200341c:	6220 7475 7420 6568 6920 646e 7865 6920      but the index i
 200342c:	2073 0000                                   s ..

02003430 <.Lanon.2203139f4e9627d5c180bbdcdb8a88f3.21>:
 2003430:	33fc 0200 0020 0000 341c 0200 0012 0000     .3.. ....4......

02003440 <.Lanon.2203139f4e9627d5c180bbdcdb8a88f3.30>:
 2003440:	616d 6374 6568                               matches

02003447 <.Lanon.2203139f4e9627d5c180bbdcdb8a88f3.31>:
 2003447:	3d21                                        !=

02003449 <.Lanon.2203139f4e9627d5c180bbdcdb8a88f3.32>:
 2003449:	3d3d                                        ==

0200344b <.Lanon.2203139f4e9627d5c180bbdcdb8a88f3.33>:
 200344b:	7361 6573 7472 6f69 206e 6166 6c69 6465     assertion failed
 200345b:	203a 2860 656c 7466                          : `(left 

02003464 <.Lanon.2203139f4e9627d5c180bbdcdb8a88f3.34>:
 2003464:	7220 6769 7468 6029 200a 6c20 6665 3a74      right)`.  left:
 2003474:	6020                                         `

02003476 <.Lanon.2203139f4e9627d5c180bbdcdb8a88f3.35>:
 2003476:	2c60 200a 6972 6867 3a74 6020               `,. right: `

02003482 <.Lanon.2203139f4e9627d5c180bbdcdb8a88f3.36>:
 2003482:	3a60 0020 0000                              `: ...

02003488 <.Lanon.2203139f4e9627d5c180bbdcdb8a88f3.37>:
 2003488:	344b 0200 0019 0000 3464 0200 0012 0000     K4......d4......
 2003498:	3476 0200 000c 0000 3482 0200 0003 0000     v4.......4......

020034a8 <.Lanon.2203139f4e9627d5c180bbdcdb8a88f3.38>:
 20034a8:	0060 0000                                   `...

020034ac <.Lanon.2203139f4e9627d5c180bbdcdb8a88f3.39>:
 20034ac:	344b 0200 0019 0000 3464 0200 0012 0000     K4......d4......
 20034bc:	3476 0200 000c 0000 34a8 0200 0001 0000     v4.......4......

020034cc <anon.2b75a7cf91ec249210fcc70369ead3ee.38.llvm.3288291684404716833>:
 20034cc:	003a 0000                                   :...

020034d0 <anon.2b75a7cf91ec249210fcc70369ead3ee.39.llvm.3288291684404716833>:
 20034d0:	34cc 0200 0000 0000 34cc 0200 0001 0000     .4.......4......
 20034e0:	34cc 0200 0001 0000                         .4......

020034e8 <.Lanon.2470e23b193c6d4911122a51e24b5cb9.17>:
 20034e8:	203a 0000                                   : ..

020034ec <.Lanon.2470e23b193c6d4911122a51e24b5cb9.18>:
 20034ec:	34e8 0200 0000 0000 34e8 0200 0002 0000     .4.......4......

020034fc <.Lanon.7a23e82b71577a7bc0915bb07fa28840.7>:
 20034fc:	34fc 0200 0000 0000                         .4......

02003504 <anon.21be27dcbcfea609e6fb5c090ac782fb.14.llvm.13982520288002575779>:
 2003504:	6172 676e 2065 7473 7261 2074 6e69 6564     range start inde
 2003514:	2078                                        x 

02003516 <anon.21be27dcbcfea609e6fb5c090ac782fb.15.llvm.13982520288002575779>:
 2003516:	6f20 7475 6f20 2066 6172 676e 2065 6f66      out of range fo
 2003526:	2072 6c73 6369 2065 666f 6c20 6e65 7467     r slice of lengt
 2003536:	2068                                        h 

02003538 <anon.21be27dcbcfea609e6fb5c090ac782fb.16.llvm.13982520288002575779>:
 2003538:	3504 0200 0012 0000 3516 0200 0022 0000     .5.......5.."...

02003548 <anon.21be27dcbcfea609e6fb5c090ac782fb.17.llvm.13982520288002575779>:
 2003548:	682f 6d6f 2f65 616d 2f75 6572 6f70 2f73     /home/mau/repos/
 2003558:	6972 6373 2d30 7572 7473 732d 6174 7472     risc0-rust-start
 2003568:	7265 742f 7261 6567 2f74 6564 7562 2f67     er/target/debug/
 2003578:	7562 6c69 2f64 656d 6874 646f 2d73 3137     build/methods-71
 2003588:	3836 3431 6361 3061 3933 3331 3865 6f2f     6814aca03913e8/o
 2003598:	7475 722f 7375 2d74 7473 5f64 3335 3439     ut/rust-std_5394
 20035a8:	3739 6536 6233 3565 3263 6266 3965 3035     976e3be5c2fbe950
 20035b8:	3466 6631 3537 6265 3933 6332 3864 3838     f41f75eb392cd888
 20035c8:	3536 3937 3333 3236 3539 3434 3065 3561     657933629544e0a5
 20035d8:	6135 3537 6262 6530 3935 3964 6c2f 6269     5a75bb0e59d9/lib
 20035e8:	6172 7972 632f 726f 2f65 7273 2f63 6c73     rary/core/src/sl
 20035f8:	6369 2f65 6e69 6564 2e78 7372               ice/index.rs

02003604 <anon.21be27dcbcfea609e6fb5c090ac782fb.18.llvm.13982520288002575779>:
 2003604:	3548 0200 00bc 0000 0034 0000 0005 0000     H5......4.......

02003614 <anon.21be27dcbcfea609e6fb5c090ac782fb.23.llvm.13982520288002575779>:
 2003614:	2d74 0200 0010 0000 3516 0200 0022 0000     t-.......5.."...

02003624 <anon.21be27dcbcfea609e6fb5c090ac782fb.24.llvm.13982520288002575779>:
 2003624:	3548 0200 00bc 0000 0049 0000 0005 0000     H5......I.......

02003634 <anon.21be27dcbcfea609e6fb5c090ac782fb.28.llvm.13982520288002575779>:
 2003634:	6c73 6369 2065 6e69 6564 2078 7473 7261     slice index star
 2003644:	7374 6120 2074                              ts at 

0200364a <anon.21be27dcbcfea609e6fb5c090ac782fb.29.llvm.13982520288002575779>:
 200364a:	6220 7475 6520 646e 2073 7461 0020           but ends at .

02003658 <anon.21be27dcbcfea609e6fb5c090ac782fb.30.llvm.13982520288002575779>:
 2003658:	3634 0200 0016 0000 364a 0200 000d 0000     46......J6......

02003668 <anon.21be27dcbcfea609e6fb5c090ac782fb.31.llvm.13982520288002575779>:
 2003668:	3548 0200 00bc 0000 005c 0000 0005 0000     H5......\.......
